(dp1
I13184
(dp2
sI13826
(dp3
sI13803
(dp4
sI10630
(dp5
sI14017
(dp6
sI13448
(dp7
sI12169
(dp8
sI10636
(dp9
sI11023
(dp10
sI12819
(dp11
sI13743
(dp12
sI13741
(dp13
sI12826
(dp14
sI13551
(dp15
sI12956
(dp16
sI11677
(dp17
sI12062
(dp18
sI13087
(dp19
sI12321
(dp20
sI12710
(dp21
sI11360
(dp22
sI11954
(dp23
sI13469
(dp24
sI11568
(dp25
sI10546
(dp26
sI14899
(dp27
sI11060
(dp28
sI13534
(dp29
sI10295
(dp30
sI14260
(dp31
sI13371
(dp32
sI13756
(dp33
sI13757
(dp34
sI10814
(dp35
sI13247
(dp36
sI10944
(dp37
sI10177
(dp38
sI10315
(dp39
sI14156
(dp40
sI12642
(dp41
sI11860
(dp42
sI11603
(dp43
sI11604
(dp44
sI12629
(dp45
sI13526
(dp46
sI11641
(dp47
sI10458
(dp48
sI10459
(dp49
sI10460
(dp50
sI11870
(dp51
sI10208
(dp52
sI12129
(dp53
sI10210
(dp54
sI10851
(dp55
sI10091
(dp56
sI14316
(dp57
sI11246
(dp58
sI12527
(dp59
sI10482
(dp60
sI11126
(dp61
sI10489
(dp62
sI11386
(dp63
sI13051
(dp64
sI13274
(dp65
sI14974
(dp66
s.