(dp1
I100001
(dp2
sI100002
(dp3
sI100003
(dp4
sI100004
(dp5
sI100005
(dp6
sI100006
(dp7
sI100007
(dp8
sI100008
(dp9
sI100009
(dp10
sI100010
(dp11
sI100011
(dp12
sI100012
(dp13
sI100013
(dp14
sI100014
(dp15
sI100015
(dp16
sI100016
(dp17
sI100017
(dp18
sI100018
(dp19
sI100019
(dp20
sI100020
(dp21
sI100021
(dp22
sI100022
(dp23
sI100023
(dp24
sI100024
(dp25
sI100025
(dp26
sI100026
(dp27
sI100027
(dp28
sI100028
(dp29
sI100029
(dp30
sI100030
(dp31
sI100031
(dp32
sI100032
(dp33
sI100033
(dp34
sI100034
(dp35
sI100035
(dp36
sI100036
(dp37
sI100037
(dp38
sI100038
(dp39
sI100039
(dp40
sI100040
(dp41
sI100041
(dp42
sI100042
(dp43
sI100043
(dp44
sI100044
(dp45
sI100045
(dp46
sI100046
(dp47
sI100047
(dp48
sI100048
(dp49
sI100049
(dp50
sI100050
(dp51
sI100051
(dp52
sI100052
(dp53
sI100053
(dp54
sI100054
(dp55
sI100055
(dp56
sI100056
(dp57
sI100057
(dp58
sI100058
(dp59
sI100059
(dp60
sI100060
(dp61
sI100061
(dp62
sI100062
(dp63
sI100063
(dp64
sI100064
(dp65
sI100065
(dp66
sI100066
(dp67
sI100067
(dp68
sI100068
(dp69
sI100069
(dp70
sI100070
(dp71
sI100071
(dp72
sI100072
(dp73
sI100073
(dp74
sI100074
(dp75
sI100075
(dp76
sI100076
(dp77
sI100077
(dp78
sI100078
(dp79
sI100079
(dp80
sI100080
(dp81
sI100081
(dp82
sI100082
(dp83
sI100083
(dp84
sI100084
(dp85
sI100085
(dp86
sI100086
(dp87
sI100087
(dp88
sI100088
(dp89
sI100089
(dp90
sI100090
(dp91
sI100091
(dp92
sI100092
(dp93
sI100093
(dp94
sI100094
(dp95
sI100095
(dp96
sI100096
(dp97
sI100097
(dp98
sI100098
(dp99
sI100099
(dp100
sI100100
(dp101
sI100101
(dp102
sI100102
(dp103
sI100103
(dp104
sI100104
(dp105
sI100105
(dp106
sI100106
(dp107
sI100107
(dp108
sI100108
(dp109
sI100109
(dp110
sI100110
(dp111
sI100111
(dp112
sI100112
(dp113
sI100113
(dp114
sI100114
(dp115
sI100115
(dp116
sI100116
(dp117
sI100117
(dp118
sI100118
(dp119
sI100119
(dp120
sI100120
(dp121
sI100121
(dp122
sI100122
(dp123
sI100123
(dp124
sI100124
(dp125
sI100125
(dp126
sI100126
(dp127
sI100127
(dp128
sI100128
(dp129
sI100129
(dp130
sI100130
(dp131
sI100131
(dp132
sI100132
(dp133
sI100133
(dp134
sI100134
(dp135
sI100135
(dp136
sI100136
(dp137
sI100137
(dp138
sI100138
(dp139
sI100139
(dp140
sI100140
(dp141
sI100141
(dp142
sI100142
(dp143
sI100143
(dp144
sI100144
(dp145
sI100145
(dp146
sI100146
(dp147
sI100147
(dp148
sI100148
(dp149
sI100149
(dp150
sI100150
(dp151
sI100151
(dp152
sI100152
(dp153
sI100153
(dp154
sI100154
(dp155
sI100155
(dp156
sI100156
(dp157
sI100157
(dp158
sI100158
(dp159
sI100159
(dp160
sI100160
(dp161
sI100161
(dp162
sI100162
(dp163
sI100163
(dp164
sI100164
(dp165
sI100165
(dp166
sI100166
(dp167
sI100167
(dp168
sI100168
(dp169
sI100169
(dp170
sI100170
(dp171
sI100171
(dp172
sI100172
(dp173
sI100173
(dp174
sI100174
(dp175
sI100175
(dp176
sI100176
(dp177
sI100177
(dp178
sI100178
(dp179
sI100179
(dp180
sI100180
(dp181
sI100181
(dp182
sI100182
(dp183
sI100183
(dp184
sI100184
(dp185
sI100185
(dp186
sI100186
(dp187
sI100187
(dp188
sI100188
(dp189
sI100189
(dp190
sI100190
(dp191
sI100191
(dp192
sI100192
(dp193
sI100193
(dp194
sI100195
(dp195
sI100196
(dp196
sI100197
(dp197
sI100198
(dp198
sI100199
(dp199
sI100200
(dp200
sI100201
(dp201
sI100202
(dp202
sI100203
(dp203
sI100204
(dp204
sI100205
(dp205
sI100206
(dp206
sI100207
(dp207
sI100208
(dp208
sI100210
(dp209
sI100211
(dp210
sI100212
(dp211
sI100213
(dp212
sI100214
(dp213
sI100215
(dp214
sI100216
(dp215
sI100217
(dp216
sI100218
(dp217
sI100219
(dp218
sI100221
(dp219
sI100222
(dp220
sI100223
(dp221
sI100224
(dp222
sI100225
(dp223
sI100226
(dp224
sI100227
(dp225
sI100229
(dp226
sI100230
(dp227
sI100231
(dp228
sI100232
(dp229
sI100233
(dp230
sI100234
(dp231
sI100235
(dp232
sI100236
(dp233
sI100237
(dp234
sI100238
(dp235
sI100239
(dp236
sI100240
(dp237
sI100241
(dp238
sI100242
(dp239
sI100243
(dp240
sI100244
(dp241
sI100245
(dp242
sI100246
(dp243
sI100247
(dp244
sI100248
(dp245
sI100250
(dp246
sI100253
(dp247
sI100254
(dp248
sI100255
(dp249
sI100256
(dp250
sI100258
(dp251
sI100259
(dp252
sI100260
(dp253
sI100261
(dp254
sI100262
(dp255
sI100263
(dp256
sI100264
(dp257
sI100265
(dp258
sI100266
(dp259
sI100267
(dp260
sI100268
(dp261
sI100269
(dp262
sI100270
(dp263
sI100271
(dp264
sI100272
(dp265
sI100273
(dp266
sI100274
(dp267
sI100275
(dp268
sI100276
(dp269
sI100277
(dp270
sI100278
(dp271
sI100279
(dp272
sI100280
(dp273
sI100281
(dp274
sI100282
(dp275
sI100283
(dp276
sI100284
(dp277
sI100285
(dp278
sI100286
(dp279
sI100287
(dp280
sI100288
(dp281
sI100289
(dp282
sI100290
(dp283
sI100291
(dp284
sI100292
(dp285
sI100293
(dp286
sI100294
(dp287
sI100295
(dp288
sI100296
(dp289
sI100297
(dp290
sI100298
(dp291
sI100299
(dp292
sI100300
(dp293
sI100301
(dp294
sI100302
(dp295
sI100303
(dp296
sI100304
(dp297
sI100305
(dp298
sI100306
(dp299
sI100308
(dp300
sI100309
(dp301
sI100310
(dp302
sI100311
(dp303
sI100312
(dp304
sI100313
(dp305
sI100314
(dp306
sI100315
(dp307
sI100316
(dp308
sI100317
(dp309
sI100318
(dp310
sI100319
(dp311
sI100320
(dp312
sI100321
(dp313
sI100322
(dp314
sI100323
(dp315
sI100324
(dp316
sI100325
(dp317
sI100326
(dp318
sI100327
(dp319
sI100328
(dp320
sI100329
(dp321
sI100330
(dp322
sI100331
(dp323
sI100332
(dp324
sI100333
(dp325
sI100334
(dp326
sI100335
(dp327
sI100336
(dp328
sI100337
(dp329
sI100338
(dp330
sI100339
(dp331
sI100340
(dp332
sI100341
(dp333
sI100342
(dp334
sI100343
(dp335
sI100344
(dp336
sI100345
(dp337
sI100347
(dp338
sI100348
(dp339
sI100349
(dp340
sI100350
(dp341
sI100351
(dp342
sI100352
(dp343
sI100353
(dp344
sI100354
(dp345
sI100355
(dp346
sI100356
(dp347
sI100357
(dp348
sI100358
(dp349
sI100359
(dp350
sI100360
(dp351
sI100361
(dp352
sI100362
(dp353
sI100363
(dp354
sI100364
(dp355
sI100365
(dp356
sI100366
(dp357
sI100367
(dp358
sI100368
(dp359
sI100369
(dp360
sI100370
(dp361
sI100371
(dp362
sI100372
(dp363
sI100373
(dp364
sI100374
(dp365
sI100375
(dp366
sI100376
(dp367
sI100377
(dp368
sI100378
(dp369
sI100379
(dp370
sI100380
(dp371
sI100381
(dp372
sI100382
(dp373
sI100383
(dp374
sI100384
(dp375
sI100385
(dp376
sI100386
(dp377
sI100387
(dp378
sI100388
(dp379
sI100389
(dp380
sI100390
(dp381
sI100391
(dp382
sI100392
(dp383
sI100393
(dp384
sI100394
(dp385
sI100395
(dp386
sI100396
(dp387
sI100397
(dp388
sI100398
(dp389
sI100399
(dp390
sI100407
(dp391
sI100408
(dp392
sI100409
(dp393
sI100410
(dp394
sI100411
(dp395
sI100413
(dp396
sI100414
(dp397
sI100415
(dp398
sI100416
(dp399
sI100417
(dp400
sI100418
(dp401
sI100419
(dp402
sI100420
(dp403
sI100421
(dp404
sI100422
(dp405
sI100423
(dp406
sI100424
(dp407
sI100425
(dp408
sI100426
(dp409
sI100427
(dp410
sI100428
(dp411
sI100429
(dp412
sI100430
(dp413
sI100431
(dp414
sI100432
(dp415
sI100433
(dp416
sI100434
(dp417
sI100435
(dp418
sI100436
(dp419
sI100437
(dp420
sI100438
(dp421
sI100439
(dp422
sI100440
(dp423
sI100441
(dp424
sI100442
(dp425
sI100443
(dp426
sI100444
(dp427
sI100445
(dp428
sI100446
(dp429
sI100447
(dp430
sI100449
(dp431
sI100450
(dp432
sI100451
(dp433
sI100452
(dp434
sI100453
(dp435
sI100454
(dp436
sI100455
(dp437
sI100456
(dp438
sI100457
(dp439
sI100458
(dp440
sI100459
(dp441
sI100460
(dp442
sI100461
(dp443
sI100462
(dp444
sI100463
(dp445
sI100464
(dp446
sI100465
(dp447
sI100467
(dp448
sI100468
(dp449
sI100469
(dp450
sI100471
(dp451
sI100472
(dp452
sI100473
(dp453
sI100474
(dp454
sI100475
(dp455
sI100476
(dp456
sI100477
(dp457
sI100478
(dp458
sI100479
(dp459
sI100480
(dp460
sI100481
(dp461
sI100482
(dp462
sI100483
(dp463
sI100484
(dp464
sI100485
(dp465
sI100486
(dp466
sI100487
(dp467
sI100488
(dp468
sI100489
(dp469
sI100491
(dp470
sI100492
(dp471
sI100493
(dp472
sI100494
(dp473
sI100495
(dp474
sI100496
(dp475
sI100497
(dp476
sI100498
(dp477
sI100499
(dp478
sI100500
(dp479
sI100501
(dp480
sI100502
(dp481
sI100503
(dp482
sI100504
(dp483
sI100505
(dp484
sI100506
(dp485
sI100507
(dp486
sI100518
(dp487
sI100521
(dp488
sI100522
(dp489
sI100523
(dp490
sI100524
(dp491
sI100525
(dp492
sI100526
(dp493
sI100527
(dp494
sI100528
(dp495
sI100529
(dp496
sI100530
(dp497
sI100531
(dp498
sI100532
(dp499
sI100534
(dp500
sI100535
(dp501
sI100536
(dp502
sI100537
(dp503
sI100538
(dp504
sI100539
(dp505
sI100540
(dp506
sI100541
(dp507
sI100543
(dp508
sI100544
(dp509
sI100545
(dp510
sI100546
(dp511
sI100547
(dp512
sI100548
(dp513
sI100549
(dp514
sI100550
(dp515
sI100551
(dp516
sI100552
(dp517
sI100553
(dp518
sI100554
(dp519
sI100555
(dp520
sI100556
(dp521
sI100557
(dp522
sI100558
(dp523
sI100559
(dp524
sI100560
(dp525
sI100561
(dp526
sI100562
(dp527
sI100563
(dp528
sI100564
(dp529
sI100565
(dp530
sI100566
(dp531
sI100567
(dp532
sI100568
(dp533
sI100569
(dp534
sI100570
(dp535
sI100571
(dp536
sI100572
(dp537
sI100573
(dp538
sI100574
(dp539
sI100575
(dp540
sI100576
(dp541
sI100577
(dp542
sI100578
(dp543
sI100579
(dp544
sI100580
(dp545
sI100581
(dp546
sI100582
(dp547
sI100583
(dp548
sI100584
(dp549
sI100585
(dp550
sI100586
(dp551
sI100587
(dp552
sI100588
(dp553
sI100589
(dp554
sI100590
(dp555
sI100591
(dp556
sI100592
(dp557
sI100593
(dp558
sI100594
(dp559
sI100595
(dp560
sI100596
(dp561
sI100597
(dp562
sI100598
(dp563
sI100599
(dp564
sI100600
(dp565
sI100601
(dp566
sI100602
(dp567
sI100603
(dp568
sI100604
(dp569
sI100605
(dp570
sI100606
(dp571
sI100607
(dp572
sI100608
(dp573
sI100609
(dp574
sI100610
(dp575
sI100611
(dp576
sI100612
(dp577
sI100613
(dp578
sI100614
(dp579
sI100615
(dp580
sI100616
(dp581
sI100617
(dp582
sI100618
(dp583
sI100619
(dp584
sI100620
(dp585
sI100621
(dp586
sI100622
(dp587
sI100623
(dp588
sI100624
(dp589
sI100625
(dp590
sI100627
(dp591
sI100628
(dp592
sI100629
(dp593
sI100630
(dp594
sI100632
(dp595
sI100634
(dp596
sI100635
(dp597
sI100636
(dp598
sI100637
(dp599
sI100638
(dp600
sI100639
(dp601
sI100640
(dp602
sI100641
(dp603
sI100642
(dp604
sI100643
(dp605
sI100645
(dp606
sI100646
(dp607
sI100647
(dp608
sI100648
(dp609
sI100649
(dp610
sI100650
(dp611
sI100651
(dp612
sI100652
(dp613
sI100653
(dp614
sI100654
(dp615
sI100655
(dp616
sI100656
(dp617
sI100657
(dp618
sI100658
(dp619
sI100659
(dp620
sI100660
(dp621
sI100661
(dp622
sI100662
(dp623
sI100663
(dp624
sI100664
(dp625
sI100665
(dp626
sI100666
(dp627
sI100667
(dp628
sI100668
(dp629
sI100669
(dp630
sI100670
(dp631
sI100671
(dp632
sI100672
(dp633
sI100673
(dp634
sI100674
(dp635
sI100675
(dp636
sI100676
(dp637
sI100677
(dp638
sI100678
(dp639
sI100679
(dp640
sI100680
(dp641
sI100681
(dp642
sI100682
(dp643
sI100683
(dp644
sI100684
(dp645
sI100685
(dp646
sI100686
(dp647
sI100687
(dp648
sI100688
(dp649
sI100689
(dp650
sI100690
(dp651
sI100691
(dp652
sI100692
(dp653
sI100693
(dp654
sI100694
(dp655
sI100695
(dp656
sI100696
(dp657
sI100697
(dp658
sI100698
(dp659
sI100699
(dp660
sI100700
(dp661
sI100701
(dp662
sI100702
(dp663
sI100703
(dp664
sI100704
(dp665
sI100705
(dp666
sI100706
(dp667
sI100707
(dp668
sI100708
(dp669
sI100709
(dp670
sI100710
(dp671
sI100711
(dp672
sI100712
(dp673
sI100713
(dp674
sI100714
(dp675
sI100715
(dp676
sI100716
(dp677
sI100717
(dp678
sI100718
(dp679
sI100719
(dp680
sI100720
(dp681
sI100722
(dp682
sI100723
(dp683
sI100724
(dp684
sI100725
(dp685
sI100726
(dp686
sI100727
(dp687
sI100728
(dp688
sI100729
(dp689
sI100730
(dp690
sI100731
(dp691
sI100732
(dp692
sI100733
(dp693
sI100734
(dp694
sI100735
(dp695
sI100736
(dp696
sI100737
(dp697
sI100738
(dp698
sI100739
(dp699
sI100740
(dp700
sI100742
(dp701
sI100744
(dp702
sI100745
(dp703
sI100746
(dp704
sI100747
(dp705
sI100748
(dp706
sI100749
(dp707
sI100750
(dp708
sI100751
(dp709
sI100752
(dp710
sI100753
(dp711
sI100754
(dp712
sI100755
(dp713
sI100756
(dp714
sI100757
(dp715
sI100758
(dp716
sI100759
(dp717
sI100760
(dp718
sI100761
(dp719
sI100762
(dp720
sI100763
(dp721
sI100764
(dp722
sI100765
(dp723
sI100766
(dp724
sI100767
(dp725
sI100768
(dp726
sI100769
(dp727
sI100770
(dp728
sI100771
(dp729
sI100773
(dp730
sI100774
(dp731
sI100775
(dp732
sI100776
(dp733
sI100777
(dp734
sI100778
(dp735
sI100779
(dp736
sI100780
(dp737
sI100781
(dp738
sI100782
(dp739
sI100783
(dp740
sI100784
(dp741
sI100785
(dp742
sI100786
(dp743
sI100787
(dp744
sI100788
(dp745
sI100789
(dp746
sI100790
(dp747
sI100791
(dp748
sI100792
(dp749
sI100793
(dp750
sI100794
(dp751
sI100795
(dp752
sI100796
(dp753
sI100797
(dp754
sI100798
(dp755
sI100799
(dp756
sI100800
(dp757
sI100801
(dp758
sI100802
(dp759
sI100803
(dp760
sI100804
(dp761
sI100805
(dp762
sI100806
(dp763
sI100807
(dp764
sI100808
(dp765
sI100809
(dp766
sI100810
(dp767
sI100811
(dp768
sI100812
(dp769
sI100813
(dp770
sI100815
(dp771
sI100816
(dp772
sI100817
(dp773
sI100818
(dp774
sI100819
(dp775
sI100820
(dp776
sI100821
(dp777
sI100822
(dp778
sI100823
(dp779
sI100824
(dp780
sI100825
(dp781
sI100826
(dp782
sI100827
(dp783
sI100828
(dp784
sI100829
(dp785
sI100830
(dp786
sI100831
(dp787
sI100832
(dp788
sI100833
(dp789
sI100834
(dp790
sI100836
(dp791
sI100837
(dp792
sI100838
(dp793
sI100839
(dp794
sI100840
(dp795
sI100841
(dp796
sI100842
(dp797
sI100843
(dp798
sI100844
(dp799
sI100845
(dp800
sI100847
(dp801
sI100848
(dp802
sI100849
(dp803
sI100850
(dp804
sI100851
(dp805
sI100852
(dp806
sI100853
(dp807
sI100854
(dp808
sI100855
(dp809
sI100856
(dp810
sI100857
(dp811
sI100858
(dp812
sI100859
(dp813
sI100860
(dp814
sI100861
(dp815
sI100862
(dp816
sI100863
(dp817
sI100864
(dp818
sI100865
(dp819
sI100866
(dp820
sI100867
(dp821
sI100868
(dp822
sI100869
(dp823
sI100870
(dp824
sI100871
(dp825
sI100872
(dp826
sI100873
(dp827
sI100874
(dp828
sI100875
(dp829
sI100876
(dp830
sI100877
(dp831
sI100878
(dp832
sI100879
(dp833
sI100880
(dp834
sI100881
(dp835
sI100882
(dp836
sI100883
(dp837
sI100884
(dp838
sI100885
(dp839
sI100886
(dp840
sI100887
(dp841
sI100888
(dp842
sI100889
(dp843
sI100890
(dp844
sI100891
(dp845
sI100892
(dp846
sI100893
(dp847
sI100894
(dp848
sI100895
(dp849
sI100896
(dp850
sI100898
(dp851
sI100901
(dp852
sI100902
(dp853
sI100903
(dp854
sI100904
(dp855
sI100905
(dp856
sI100906
(dp857
sI100907
(dp858
sI100908
(dp859
sI100909
(dp860
sI100910
(dp861
sI100911
(dp862
sI100912
(dp863
sI100913
(dp864
sI100914
(dp865
sI100915
(dp866
sI100916
(dp867
sI100917
(dp868
sI100918
(dp869
sI100919
(dp870
sI100920
(dp871
sI100921
(dp872
sI100922
(dp873
sI100923
(dp874
sI100924
(dp875
sI100925
(dp876
sI100926
(dp877
sI100927
(dp878
sI100928
(dp879
sI100929
(dp880
sI100930
(dp881
sI100931
(dp882
sI100932
(dp883
sI100933
(dp884
sI100934
(dp885
sI100935
(dp886
sI100936
(dp887
sI100937
(dp888
sI100938
(dp889
sI100939
(dp890
sI100940
(dp891
sI100941
(dp892
sI100942
(dp893
sI100943
(dp894
sI100944
(dp895
sI100945
(dp896
sI100946
(dp897
sI100947
(dp898
sI100948
(dp899
sI100949
(dp900
sI100950
(dp901
sI100951
(dp902
sI100952
(dp903
sI100953
(dp904
sI100954
(dp905
sI100955
(dp906
sI100957
(dp907
sI100958
(dp908
sI100959
(dp909
sI100960
(dp910
sI100961
(dp911
sI100962
(dp912
sI100963
(dp913
sI100964
(dp914
sI100965
(dp915
sI100966
(dp916
sI100967
(dp917
sI100969
(dp918
sI100970
(dp919
sI100971
(dp920
sI100972
(dp921
sI100973
(dp922
sI100974
(dp923
sI100975
(dp924
sI100976
(dp925
sI100977
(dp926
sI100978
(dp927
sI100979
(dp928
sI100980
(dp929
sI100981
(dp930
sI100982
(dp931
sI100983
(dp932
sI100984
(dp933
sI100985
(dp934
sI100986
(dp935
sI100987
(dp936
sI100988
(dp937
sI100989
(dp938
sI100990
(dp939
sI100991
(dp940
sI100992
(dp941
sI100993
(dp942
sI100994
(dp943
sI100995
(dp944
sI100996
(dp945
sI100997
(dp946
sI100998
(dp947
sI100999
(dp948
sI101000
(dp949
sI101001
(dp950
sI101002
(dp951
sI101003
(dp952
sI101004
(dp953
sI101005
(dp954
sI101006
(dp955
sI101007
(dp956
sI101008
(dp957
sI101009
(dp958
sI101010
(dp959
sI101012
(dp960
sI101013
(dp961
sI101014
(dp962
sI101015
(dp963
sI101016
(dp964
sI101017
(dp965
sI101018
(dp966
sI101019
(dp967
sI101020
(dp968
sI101021
(dp969
sI101022
(dp970
sI101023
(dp971
sI101024
(dp972
sI101025
(dp973
sI101026
(dp974
sI101027
(dp975
sI101028
(dp976
sI101030
(dp977
sI101032
(dp978
sI101033
(dp979
sI101034
(dp980
sI101035
(dp981
sI101036
(dp982
sI101037
(dp983
sI101038
(dp984
sI101039
(dp985
sI101040
(dp986
sI101041
(dp987
sI101042
(dp988
sI101043
(dp989
sI101044
(dp990
sI101045
(dp991
sI101046
(dp992
sI101047
(dp993
sI101048
(dp994
sI101049
(dp995
sI101050
(dp996
sI101051
(dp997
sI101052
(dp998
sI101053
(dp999
sI101054
(dp1000
sI101055
(dp1001
sI101056
(dp1002
sI101057
(dp1003
sI101058
(dp1004
sI101059
(dp1005
sI101060
(dp1006
sI101061
(dp1007
sI101062
(dp1008
sI101063
(dp1009
sI101064
(dp1010
sI101065
(dp1011
sI101066
(dp1012
sI101067
(dp1013
sI101068
(dp1014
sI101069
(dp1015
sI101070
(dp1016
sI101071
(dp1017
sI101072
(dp1018
sI101073
(dp1019
sI101074
(dp1020
sI101075
(dp1021
sI101076
(dp1022
sI101077
(dp1023
sI101078
(dp1024
sI101079
(dp1025
sI101080
(dp1026
sI101081
(dp1027
sI101082
(dp1028
sI101083
(dp1029
sI101084
(dp1030
sI101085
(dp1031
sI101086
(dp1032
sI101087
(dp1033
sI101088
(dp1034
sI101089
(dp1035
sI101090
(dp1036
sI101091
(dp1037
sI101092
(dp1038
sI101093
(dp1039
sI101094
(dp1040
sI101095
(dp1041
sI101096
(dp1042
sI101097
(dp1043
sI101098
(dp1044
sI101099
(dp1045
sI101100
(dp1046
sI101101
(dp1047
sI101102
(dp1048
sI101103
(dp1049
sI101104
(dp1050
sI101105
(dp1051
sI101106
(dp1052
sI101107
(dp1053
sI101108
(dp1054
sI101109
(dp1055
sI101110
(dp1056
sI101111
(dp1057
sI101112
(dp1058
sI101113
(dp1059
sI101114
(dp1060
sI101115
(dp1061
sI101116
(dp1062
sI101117
(dp1063
sI101118
(dp1064
sI101119
(dp1065
sI101120
(dp1066
sI101121
(dp1067
sI101122
(dp1068
sI101123
(dp1069
sI101124
(dp1070
sI101125
(dp1071
sI101126
(dp1072
sI101127
(dp1073
sI101128
(dp1074
sI101129
(dp1075
sI101130
(dp1076
sI101131
(dp1077
sI101132
(dp1078
sI101133
(dp1079
sI101134
(dp1080
sI101135
(dp1081
sI101137
(dp1082
sI101138
(dp1083
sI101139
(dp1084
sI101140
(dp1085
sI101141
(dp1086
sI101142
(dp1087
sI101143
(dp1088
sI101144
(dp1089
sI101145
(dp1090
sI101146
(dp1091
sI101147
(dp1092
sI101148
(dp1093
sI101149
(dp1094
sI101150
(dp1095
sI101151
(dp1096
sI101152
(dp1097
sI101153
(dp1098
sI101154
(dp1099
sI101157
(dp1100
sI101158
(dp1101
sI101159
(dp1102
sI101160
(dp1103
sI101161
(dp1104
sI101162
(dp1105
sI101163
(dp1106
sI101164
(dp1107
sI101165
(dp1108
sI101166
(dp1109
sI101167
(dp1110
sI101168
(dp1111
sI101169
(dp1112
sI101170
(dp1113
sI101171
(dp1114
sI101172
(dp1115
sI101173
(dp1116
sI101174
(dp1117
sI101175
(dp1118
sI101176
(dp1119
sI101177
(dp1120
sI101178
(dp1121
sI101179
(dp1122
sI101180
(dp1123
sI101181
(dp1124
sI101182
(dp1125
sI101183
(dp1126
sI101184
(dp1127
sI101185
(dp1128
sI101186
(dp1129
sI101187
(dp1130
sI101188
(dp1131
sI101189
(dp1132
sI101190
(dp1133
sI101191
(dp1134
sI101192
(dp1135
sI101193
(dp1136
sI101194
(dp1137
sI101195
(dp1138
sI101196
(dp1139
sI101197
(dp1140
sI101198
(dp1141
sI101199
(dp1142
sI101200
(dp1143
sI101201
(dp1144
sI101202
(dp1145
sI101203
(dp1146
sI101204
(dp1147
sI101205
(dp1148
sI101206
(dp1149
sI101207
(dp1150
sI101208
(dp1151
sI101209
(dp1152
sI101210
(dp1153
sI101211
(dp1154
sI101212
(dp1155
sI101213
(dp1156
sI101214
(dp1157
sI101215
(dp1158
sI101216
(dp1159
sI101217
(dp1160
sI101218
(dp1161
sI101219
(dp1162
sI101220
(dp1163
sI101221
(dp1164
sI101222
(dp1165
sI101223
(dp1166
sI101224
(dp1167
sI101228
(dp1168
sI101229
(dp1169
sI101230
(dp1170
sI101231
(dp1171
sI101232
(dp1172
sI101233
(dp1173
sI101234
(dp1174
sI101235
(dp1175
sI101236
(dp1176
sI101237
(dp1177
sI101238
(dp1178
sI101239
(dp1179
sI101240
(dp1180
sI101241
(dp1181
sI101242
(dp1182
sI101243
(dp1183
sI101244
(dp1184
sI101245
(dp1185
sI101247
(dp1186
sI101248
(dp1187
sI101249
(dp1188
sI101250
(dp1189
sI101251
(dp1190
sI101252
(dp1191
sI101253
(dp1192
sI101254
(dp1193
sI101255
(dp1194
sI101256
(dp1195
sI101257
(dp1196
sI101258
(dp1197
sI101259
(dp1198
sI101260
(dp1199
sI101261
(dp1200
sI101262
(dp1201
sI101263
(dp1202
sI101264
(dp1203
sI101265
(dp1204
sI101266
(dp1205
sI101267
(dp1206
sI101268
(dp1207
sI101269
(dp1208
sI101270
(dp1209
sI101271
(dp1210
sI101272
(dp1211
sI101273
(dp1212
sI101274
(dp1213
sI101275
(dp1214
sI101276
(dp1215
sI101277
(dp1216
sI101278
(dp1217
sI101279
(dp1218
sI101280
(dp1219
sI101281
(dp1220
sI101282
(dp1221
sI101283
(dp1222
sI101284
(dp1223
sI101285
(dp1224
sI101286
(dp1225
sI101287
(dp1226
sI101288
(dp1227
sI101289
(dp1228
sI101290
(dp1229
sI101291
(dp1230
sI101292
(dp1231
sI101293
(dp1232
sI101294
(dp1233
sI101295
(dp1234
sI101296
(dp1235
sI101297
(dp1236
sI101298
(dp1237
sI101299
(dp1238
sI101300
(dp1239
sI101301
(dp1240
sI101302
(dp1241
sI101303
(dp1242
sI101304
(dp1243
sI101305
(dp1244
sI101306
(dp1245
sI101307
(dp1246
sI101308
(dp1247
sI101309
(dp1248
sI101310
(dp1249
sI101311
(dp1250
sI101312
(dp1251
sI101313
(dp1252
sI101314
(dp1253
sI101315
(dp1254
sI101316
(dp1255
sI101317
(dp1256
sI101319
(dp1257
sI101320
(dp1258
sI101322
(dp1259
sI101323
(dp1260
sI101324
(dp1261
sI101325
(dp1262
sI101326
(dp1263
sI101327
(dp1264
sI101328
(dp1265
sI101329
(dp1266
sI101330
(dp1267
sI101331
(dp1268
sI101332
(dp1269
sI101333
(dp1270
sI101334
(dp1271
sI101335
(dp1272
sI101336
(dp1273
sI101337
(dp1274
sI101338
(dp1275
sI101339
(dp1276
sI101340
(dp1277
sI101341
(dp1278
sI101342
(dp1279
sI101343
(dp1280
sI101344
(dp1281
sI101345
(dp1282
sI101347
(dp1283
sI101348
(dp1284
sI101349
(dp1285
sI101350
(dp1286
sI101351
(dp1287
sI101352
(dp1288
sI101353
(dp1289
sI101354
(dp1290
sI101355
(dp1291
sI101356
(dp1292
sI101357
(dp1293
sI101358
(dp1294
sI101359
(dp1295
sI101360
(dp1296
sI101361
(dp1297
sI101362
(dp1298
sI101363
(dp1299
sI101364
(dp1300
sI101365
(dp1301
sI101366
(dp1302
sI101367
(dp1303
sI101368
(dp1304
sI101369
(dp1305
sI101370
(dp1306
sI101371
(dp1307
sI101372
(dp1308
sI101373
(dp1309
sI101374
(dp1310
sI101375
(dp1311
sI101376
(dp1312
sI101377
(dp1313
sI101378
(dp1314
sI101379
(dp1315
sI101380
(dp1316
sI101381
(dp1317
sI101382
(dp1318
sI101383
(dp1319
sI101384
(dp1320
sI101385
(dp1321
sI101389
(dp1322
sI101390
(dp1323
sI101391
(dp1324
sI101393
(dp1325
sI101394
(dp1326
sI101395
(dp1327
sI101396
(dp1328
sI101397
(dp1329
sI101398
(dp1330
sI101399
(dp1331
sI101401
(dp1332
sI101403
(dp1333
sI101404
(dp1334
sI101405
(dp1335
sI101406
(dp1336
sI101407
(dp1337
sI101408
(dp1338
sI101409
(dp1339
sI101410
(dp1340
sI101411
(dp1341
sI101412
(dp1342
sI101413
(dp1343
sI101414
(dp1344
sI101415
(dp1345
sI101416
(dp1346
sI101418
(dp1347
sI101419
(dp1348
sI101420
(dp1349
sI101421
(dp1350
sI101422
(dp1351
sI101423
(dp1352
sI101424
(dp1353
sI101425
(dp1354
sI101426
(dp1355
sI101427
(dp1356
sI101428
(dp1357
sI101429
(dp1358
sI101430
(dp1359
sI101431
(dp1360
sI101432
(dp1361
sI101433
(dp1362
sI101434
(dp1363
sI101435
(dp1364
sI101436
(dp1365
sI101437
(dp1366
sI101438
(dp1367
sI101439
(dp1368
sI101440
(dp1369
sI101441
(dp1370
sI101442
(dp1371
sI101443
(dp1372
sI101444
(dp1373
sI101445
(dp1374
sI101446
(dp1375
sI101448
(dp1376
sI101449
(dp1377
sI101450
(dp1378
sI101451
(dp1379
sI101452
(dp1380
sI101453
(dp1381
sI101454
(dp1382
sI101455
(dp1383
sI101456
(dp1384
sI101458
(dp1385
sI101459
(dp1386
sI101460
(dp1387
sI101461
(dp1388
sI101462
(dp1389
sI101463
(dp1390
sI101464
(dp1391
sI101465
(dp1392
sI101466
(dp1393
sI101467
(dp1394
sI101468
(dp1395
sI101469
(dp1396
sI101470
(dp1397
sI101471
(dp1398
sI101472
(dp1399
sI101473
(dp1400
sI101474
(dp1401
sI101475
(dp1402
sI101476
(dp1403
sI101477
(dp1404
sI101478
(dp1405
sI101479
(dp1406
sI101480
(dp1407
sI101481
(dp1408
sI101482
(dp1409
sI101483
(dp1410
sI101485
(dp1411
sI101486
(dp1412
sI101487
(dp1413
sI101488
(dp1414
sI101489
(dp1415
sI101490
(dp1416
sI101492
(dp1417
sI101493
(dp1418
sI101494
(dp1419
sI101495
(dp1420
sI101496
(dp1421
sI101497
(dp1422
sI101498
(dp1423
sI101499
(dp1424
sI101500
(dp1425
sI101501
(dp1426
sI101502
(dp1427
sI101503
(dp1428
sI101504
(dp1429
sI101505
(dp1430
sI101506
(dp1431
sI101507
(dp1432
sI101508
(dp1433
sI101509
(dp1434
sI101510
(dp1435
sI101511
(dp1436
sI101512
(dp1437
sI101513
(dp1438
sI101514
(dp1439
sI101515
(dp1440
sI101516
(dp1441
sI101517
(dp1442
sI101518
(dp1443
sI101519
(dp1444
sI101520
(dp1445
sI101521
(dp1446
sI101522
(dp1447
sI101523
(dp1448
sI101524
(dp1449
sI101525
(dp1450
sI101526
(dp1451
sI101527
(dp1452
sI101528
(dp1453
sI101529
(dp1454
sI101530
(dp1455
sI101531
(dp1456
sI101532
(dp1457
sI101533
(dp1458
sI101534
(dp1459
sI101535
(dp1460
sI101536
(dp1461
sI101537
(dp1462
sI101538
(dp1463
sI101539
(dp1464
sI101540
(dp1465
sI101541
(dp1466
sI101542
(dp1467
sI101543
(dp1468
sI101544
(dp1469
sI101545
(dp1470
sI101546
(dp1471
sI101547
(dp1472
sI101548
(dp1473
sI101549
(dp1474
sI101550
(dp1475
sI101551
(dp1476
sI101552
(dp1477
sI101553
(dp1478
sI101554
(dp1479
sI101555
(dp1480
sI101557
(dp1481
sI101558
(dp1482
sI101560
(dp1483
sI101561
(dp1484
sI101562
(dp1485
sI101563
(dp1486
sI101564
(dp1487
sI101565
(dp1488
sI101566
(dp1489
sI101567
(dp1490
sI101568
(dp1491
sI101569
(dp1492
sI101570
(dp1493
sI101571
(dp1494
sI101572
(dp1495
sI101574
(dp1496
sI101575
(dp1497
sI101576
(dp1498
sI101577
(dp1499
sI101578
(dp1500
sI101579
(dp1501
sI101580
(dp1502
sI101581
(dp1503
sI101582
(dp1504
sI101583
(dp1505
sI101584
(dp1506
sI101585
(dp1507
sI101586
(dp1508
sI101587
(dp1509
sI101588
(dp1510
sI101589
(dp1511
sI101590
(dp1512
sI101591
(dp1513
sI101592
(dp1514
sI101594
(dp1515
sI101595
(dp1516
sI101596
(dp1517
sI101597
(dp1518
sI101598
(dp1519
sI101599
(dp1520
sI101600
(dp1521
sI101601
(dp1522
sI101602
(dp1523
sI101603
(dp1524
sI101604
(dp1525
sI101605
(dp1526
sI101606
(dp1527
sI101607
(dp1528
sI101608
(dp1529
sI101609
(dp1530
sI101610
(dp1531
sI101611
(dp1532
sI101612
(dp1533
sI101613
(dp1534
sI101614
(dp1535
sI101615
(dp1536
sI101616
(dp1537
sI101617
(dp1538
sI101618
(dp1539
sI101619
(dp1540
sI101620
(dp1541
sI101621
(dp1542
sI101622
(dp1543
sI101623
(dp1544
sI101624
(dp1545
sI101625
(dp1546
sI101626
(dp1547
sI101627
(dp1548
sI101628
(dp1549
sI101629
(dp1550
sI101630
(dp1551
sI101631
(dp1552
sI101632
(dp1553
sI101633
(dp1554
sI101634
(dp1555
sI101635
(dp1556
sI101636
(dp1557
sI101637
(dp1558
sI101638
(dp1559
sI101639
(dp1560
sI101640
(dp1561
sI101641
(dp1562
sI101642
(dp1563
sI101643
(dp1564
sI101644
(dp1565
sI101645
(dp1566
sI101646
(dp1567
sI101647
(dp1568
sI101648
(dp1569
sI101649
(dp1570
sI101650
(dp1571
sI101651
(dp1572
sI101652
(dp1573
sI101653
(dp1574
sI101654
(dp1575
sI101655
(dp1576
sI101656
(dp1577
sI101657
(dp1578
sI101658
(dp1579
sI101659
(dp1580
sI101681
(dp1581
sI101719
(dp1582
sI101720
(dp1583
sI101721
(dp1584
sI101722
(dp1585
sI101723
(dp1586
sI101724
(dp1587
sI101725
(dp1588
sI101726
(dp1589
sI101727
(dp1590
sI101728
(dp1591
sI101729
(dp1592
sI101730
(dp1593
sI101731
(dp1594
sI101732
(dp1595
sI101733
(dp1596
sI101734
(dp1597
sI101735
(dp1598
sI101736
(dp1599
sI101737
(dp1600
sI101738
(dp1601
sI101739
(dp1602
sI101740
(dp1603
sI101741
(dp1604
sI101742
(dp1605
sI101743
(dp1606
sI101744
(dp1607
sI101745
(dp1608
sI101746
(dp1609
sI101747
(dp1610
sI101748
(dp1611
sI101749
(dp1612
sI101750
(dp1613
sI101751
(dp1614
sI101752
(dp1615
sI101753
(dp1616
sI101754
(dp1617
sI101755
(dp1618
sI101756
(dp1619
sI101757
(dp1620
sI101758
(dp1621
sI101759
(dp1622
sI101760
(dp1623
sI101761
(dp1624
sI101762
(dp1625
sI101763
(dp1626
sI101764
(dp1627
sI101765
(dp1628
sI101766
(dp1629
sI101767
(dp1630
sI101768
(dp1631
sI101769
(dp1632
sI101770
(dp1633
sI101771
(dp1634
sI101772
(dp1635
sI101773
(dp1636
sI101774
(dp1637
sI101775
(dp1638
sI101776
(dp1639
sI101777
(dp1640
sI101778
(dp1641
sI101779
(dp1642
sI101780
(dp1643
sI101781
(dp1644
sI101782
(dp1645
sI101783
(dp1646
sI101784
(dp1647
sI101785
(dp1648
sI101786
(dp1649
sI101787
(dp1650
sI101788
(dp1651
sI101789
(dp1652
sI101790
(dp1653
sI101791
(dp1654
sI101792
(dp1655
sI101793
(dp1656
sI101794
(dp1657
sI101795
(dp1658
sI101796
(dp1659
sI101797
(dp1660
sI101798
(dp1661
sI101799
(dp1662
sI101800
(dp1663
sI101801
(dp1664
sI101802
(dp1665
sI101803
(dp1666
sI101804
(dp1667
sI101805
(dp1668
sI101806
(dp1669
sI101807
(dp1670
sI101808
(dp1671
sI101809
(dp1672
sI101810
(dp1673
sI101811
(dp1674
sI101812
(dp1675
sI101813
(dp1676
sI101814
(dp1677
sI101815
(dp1678
sI101816
(dp1679
sI101817
(dp1680
sI101818
(dp1681
sI101819
(dp1682
sI101820
(dp1683
sI101821
(dp1684
sI101822
(dp1685
sI101823
(dp1686
sI101824
(dp1687
sI101825
(dp1688
sI101826
(dp1689
sI101827
(dp1690
sI101828
(dp1691
sI101829
(dp1692
sI101830
(dp1693
sI101831
(dp1694
sI101832
(dp1695
sI101833
(dp1696
sI101834
(dp1697
sI101835
(dp1698
sI101836
(dp1699
sI101837
(dp1700
sI101838
(dp1701
sI101839
(dp1702
sI101840
(dp1703
sI101841
(dp1704
sI101842
(dp1705
sI101843
(dp1706
sI101844
(dp1707
sI101845
(dp1708
sI101846
(dp1709
sI101847
(dp1710
sI101848
(dp1711
sI101849
(dp1712
sI101850
(dp1713
sI101851
(dp1714
sI101852
(dp1715
sI101853
(dp1716
sI101854
(dp1717
sI101855
(dp1718
sI101856
(dp1719
sI101857
(dp1720
sI101858
(dp1721
sI101859
(dp1722
sI101860
(dp1723
sI101861
(dp1724
sI101862
(dp1725
sI101863
(dp1726
sI101864
(dp1727
sI101866
(dp1728
sI101867
(dp1729
sI101868
(dp1730
sI101869
(dp1731
sI101870
(dp1732
sI101873
(dp1733
sI101874
(dp1734
sI101875
(dp1735
sI101876
(dp1736
sI101877
(dp1737
sI101878
(dp1738
sI101879
(dp1739
sI101880
(dp1740
sI101881
(dp1741
sI101882
(dp1742
sI101883
(dp1743
sI101884
(dp1744
sI101885
(dp1745
sI101887
(dp1746
sI101889
(dp1747
sI101890
(dp1748
sI101891
(dp1749
sI101892
(dp1750
sI101893
(dp1751
sI101894
(dp1752
sI101895
(dp1753
sI101896
(dp1754
sI101897
(dp1755
sI101898
(dp1756
sI101899
(dp1757
sI101900
(dp1758
sI101901
(dp1759
sI101902
(dp1760
sI101903
(dp1761
sI101904
(dp1762
sI101905
(dp1763
sI101906
(dp1764
sI101907
(dp1765
sI101908
(dp1766
sI101909
(dp1767
sI101910
(dp1768
sI101911
(dp1769
sI101912
(dp1770
sI101913
(dp1771
sI101914
(dp1772
sI101915
(dp1773
sI101916
(dp1774
sI101917
(dp1775
sI101918
(dp1776
sI101919
(dp1777
sI101920
(dp1778
sI101921
(dp1779
sI101922
(dp1780
sI101924
(dp1781
sI101925
(dp1782
sI101926
(dp1783
sI101927
(dp1784
sI101928
(dp1785
sI101929
(dp1786
sI101930
(dp1787
sI101931
(dp1788
sI101932
(dp1789
sI101933
(dp1790
sI101934
(dp1791
sI101935
(dp1792
sI101937
(dp1793
sI101938
(dp1794
sI101939
(dp1795
sI101940
(dp1796
sI101941
(dp1797
sI101942
(dp1798
sI101943
(dp1799
sI101944
(dp1800
sI101945
(dp1801
sI101946
(dp1802
sI101947
(dp1803
sI101948
(dp1804
sI101949
(dp1805
sI101950
(dp1806
sI101951
(dp1807
sI101952
(dp1808
sI101953
(dp1809
sI101954
(dp1810
sI101955
(dp1811
sI101956
(dp1812
sI101957
(dp1813
sI101958
(dp1814
sI101959
(dp1815
sI101960
(dp1816
sI101961
(dp1817
sI101962
(dp1818
sI101963
(dp1819
sI101964
(dp1820
sI101966
(dp1821
sI101967
(dp1822
sI101968
(dp1823
sI101969
(dp1824
sI101970
(dp1825
sI101971
(dp1826
sI101972
(dp1827
sI101973
(dp1828
sI101974
(dp1829
sI101975
(dp1830
sI101976
(dp1831
sI101977
(dp1832
sI101978
(dp1833
sI101979
(dp1834
sI101980
(dp1835
sI101981
(dp1836
sI101982
(dp1837
sI101983
(dp1838
sI101984
(dp1839
sI101985
(dp1840
sI101986
(dp1841
sI101987
(dp1842
sI101988
(dp1843
sI101989
(dp1844
sI101990
(dp1845
sI101991
(dp1846
sI101992
(dp1847
sI101993
(dp1848
sI101994
(dp1849
sI101995
(dp1850
sI101996
(dp1851
sI101997
(dp1852
sI101998
(dp1853
sI101999
(dp1854
sI102000
(dp1855
sI102001
(dp1856
sI102002
(dp1857
sI102003
(dp1858
sI102004
(dp1859
sI102005
(dp1860
sI102006
(dp1861
sI102007
(dp1862
sI102008
(dp1863
sI102009
(dp1864
sI102010
(dp1865
sI102011
(dp1866
sI102012
(dp1867
sI102013
(dp1868
sI102014
(dp1869
sI102015
(dp1870
sI102016
(dp1871
sI102017
(dp1872
sI102018
(dp1873
sI102019
(dp1874
sI102020
(dp1875
sI102021
(dp1876
sI102022
(dp1877
sI102023
(dp1878
sI102024
(dp1879
sI102025
(dp1880
sI102026
(dp1881
sI102027
(dp1882
sI102028
(dp1883
sI102029
(dp1884
sI102030
(dp1885
sI102031
(dp1886
sI102032
(dp1887
sI102033
(dp1888
sI102034
(dp1889
sI102035
(dp1890
sI102036
(dp1891
sI102037
(dp1892
sI102038
(dp1893
sI102039
(dp1894
sI102040
(dp1895
sI102041
(dp1896
sI102042
(dp1897
sI102043
(dp1898
sI102044
(dp1899
sI102045
(dp1900
sI102046
(dp1901
sI102047
(dp1902
sI102048
(dp1903
sI102049
(dp1904
sI102050
(dp1905
sI102051
(dp1906
sI102052
(dp1907
sI102053
(dp1908
sI102054
(dp1909
sI102055
(dp1910
sI102056
(dp1911
sI102057
(dp1912
sI102058
(dp1913
sI102059
(dp1914
sI102060
(dp1915
sI102061
(dp1916
sI102062
(dp1917
sI102063
(dp1918
sI102064
(dp1919
sI102065
(dp1920
sI102066
(dp1921
sI102067
(dp1922
sI102068
(dp1923
sI102069
(dp1924
sI102070
(dp1925
sI102071
(dp1926
sI102072
(dp1927
sI102073
(dp1928
sI102074
(dp1929
sI102075
(dp1930
sI102076
(dp1931
sI102077
(dp1932
sI102078
(dp1933
sI102079
(dp1934
sI102080
(dp1935
sI102081
(dp1936
sI102082
(dp1937
sI102083
(dp1938
sI102084
(dp1939
sI102085
(dp1940
sI102086
(dp1941
sI102087
(dp1942
sI102088
(dp1943
sI102089
(dp1944
sI102090
(dp1945
sI102091
(dp1946
sI102092
(dp1947
sI102093
(dp1948
sI102094
(dp1949
sI102095
(dp1950
sI102096
(dp1951
sI102097
(dp1952
sI102098
(dp1953
sI102099
(dp1954
sI102100
(dp1955
sI102101
(dp1956
sI102102
(dp1957
sI102103
(dp1958
sI102104
(dp1959
sI102105
(dp1960
sI102106
(dp1961
sI102107
(dp1962
sI102108
(dp1963
sI102109
(dp1964
sI102110
(dp1965
sI102111
(dp1966
sI102112
(dp1967
sI102113
(dp1968
sI102114
(dp1969
sI102115
(dp1970
sI102116
(dp1971
sI102117
(dp1972
sI102118
(dp1973
sI102119
(dp1974
sI102120
(dp1975
sI102121
(dp1976
sI102122
(dp1977
sI102123
(dp1978
sI102124
(dp1979
sI102125
(dp1980
sI102126
(dp1981
sI102127
(dp1982
sI102128
(dp1983
sI102129
(dp1984
sI102130
(dp1985
sI102131
(dp1986
sI102132
(dp1987
sI102133
(dp1988
sI102134
(dp1989
sI102135
(dp1990
sI102136
(dp1991
sI102137
(dp1992
sI102138
(dp1993
sI102139
(dp1994
sI102140
(dp1995
sI102141
(dp1996
sI102142
(dp1997
sI102143
(dp1998
sI102144
(dp1999
sI102145
(dp2000
sI102146
(dp2001
sI102147
(dp2002
sI102148
(dp2003
sI102149
(dp2004
sI102150
(dp2005
sI102151
(dp2006
sI102152
(dp2007
sI102153
(dp2008
sI102154
(dp2009
sI102155
(dp2010
sI102156
(dp2011
sI102157
(dp2012
sI102158
(dp2013
sI102159
(dp2014
sI102160
(dp2015
sI102161
(dp2016
sI102162
(dp2017
sI102163
(dp2018
sI102164
(dp2019
sI102165
(dp2020
sI102166
(dp2021
sI102167
(dp2022
sI102168
(dp2023
sI102169
(dp2024
sI102170
(dp2025
sI102171
(dp2026
sI102172
(dp2027
sI102173
(dp2028
sI102174
(dp2029
sI102175
(dp2030
sI102176
(dp2031
sI102177
(dp2032
sI102178
(dp2033
sI102179
(dp2034
sI102180
(dp2035
sI102181
(dp2036
sI102182
(dp2037
sI102183
(dp2038
sI102184
(dp2039
sI102185
(dp2040
sI102186
(dp2041
sI102187
(dp2042
sI102188
(dp2043
sI102189
(dp2044
sI102190
(dp2045
sI102191
(dp2046
sI102192
(dp2047
sI102193
(dp2048
sI102194
(dp2049
sI102195
(dp2050
sI102196
(dp2051
sI102197
(dp2052
sI102198
(dp2053
sI102199
(dp2054
sI102200
(dp2055
sI102201
(dp2056
sI102202
(dp2057
sI102203
(dp2058
sI102204
(dp2059
sI102205
(dp2060
sI102206
(dp2061
sI102207
(dp2062
sI102208
(dp2063
sI102209
(dp2064
sI102210
(dp2065
sI102211
(dp2066
sI102212
(dp2067
sI102213
(dp2068
sI102214
(dp2069
sI102215
(dp2070
sI102216
(dp2071
sI102217
(dp2072
sI102218
(dp2073
sI102219
(dp2074
sI102220
(dp2075
sI102221
(dp2076
sI102222
(dp2077
sI102223
(dp2078
sI102224
(dp2079
sI102225
(dp2080
sI102226
(dp2081
sI102227
(dp2082
sI102228
(dp2083
sI102229
(dp2084
sI102230
(dp2085
sI102231
(dp2086
sI102232
(dp2087
sI102233
(dp2088
sI102234
(dp2089
sI102235
(dp2090
sI102236
(dp2091
sI102237
(dp2092
sI102238
(dp2093
sI102239
(dp2094
sI102240
(dp2095
sI102241
(dp2096
sI102242
(dp2097
sI102243
(dp2098
sI102244
(dp2099
sI102245
(dp2100
sI102246
(dp2101
sI102247
(dp2102
sI102248
(dp2103
sI102249
(dp2104
sI102250
(dp2105
sI102252
(dp2106
sI102253
(dp2107
sI102254
(dp2108
sI102255
(dp2109
sI102256
(dp2110
sI102257
(dp2111
sI102258
(dp2112
sI102259
(dp2113
sI102260
(dp2114
sI102261
(dp2115
sI102262
(dp2116
sI102263
(dp2117
sI102264
(dp2118
sI102265
(dp2119
sI102266
(dp2120
sI102267
(dp2121
sI102268
(dp2122
sI102269
(dp2123
sI102270
(dp2124
sI102271
(dp2125
sI102272
(dp2126
sI102273
(dp2127
sI102274
(dp2128
sI102275
(dp2129
sI102276
(dp2130
sI102277
(dp2131
sI102278
(dp2132
sI102279
(dp2133
sI102281
(dp2134
sI102282
(dp2135
sI102283
(dp2136
sI102284
(dp2137
sI102285
(dp2138
sI102286
(dp2139
sI102287
(dp2140
sI102288
(dp2141
sI102289
(dp2142
sI102290
(dp2143
sI102291
(dp2144
sI102292
(dp2145
sI102293
(dp2146
sI102294
(dp2147
sI102295
(dp2148
sI102296
(dp2149
sI102297
(dp2150
sI102298
(dp2151
sI102299
(dp2152
sI102300
(dp2153
sI102301
(dp2154
sI102302
(dp2155
sI102303
(dp2156
sI102304
(dp2157
sI102305
(dp2158
sI102306
(dp2159
sI102307
(dp2160
sI102308
(dp2161
sI102309
(dp2162
sI102310
(dp2163
sI102311
(dp2164
sI102312
(dp2165
sI102313
(dp2166
sI102314
(dp2167
sI102315
(dp2168
sI102316
(dp2169
sI102317
(dp2170
sI102318
(dp2171
sI102319
(dp2172
sI102320
(dp2173
sI102321
(dp2174
sI102322
(dp2175
sI102324
(dp2176
sI102325
(dp2177
sI102326
(dp2178
sI102327
(dp2179
sI102329
(dp2180
sI102330
(dp2181
sI102331
(dp2182
sI102332
(dp2183
sI102333
(dp2184
sI102335
(dp2185
sI102336
(dp2186
sI102337
(dp2187
sI102338
(dp2188
sI102340
(dp2189
sI102341
(dp2190
sI102343
(dp2191
sI102344
(dp2192
sI102345
(dp2193
sI102346
(dp2194
sI102347
(dp2195
sI102349
(dp2196
sI102350
(dp2197
sI102351
(dp2198
sI102352
(dp2199
sI102353
(dp2200
sI102354
(dp2201
sI102355
(dp2202
sI102356
(dp2203
sI102357
(dp2204
sI102358
(dp2205
sI102359
(dp2206
sI102360
(dp2207
sI102361
(dp2208
sI102362
(dp2209
sI102363
(dp2210
sI102368
(dp2211
sI102369
(dp2212
sI102370
(dp2213
sI102371
(dp2214
sI102372
(dp2215
sI102373
(dp2216
sI102374
(dp2217
sI102375
(dp2218
sI102376
(dp2219
sI102377
(dp2220
sI102378
(dp2221
sI102379
(dp2222
sI102380
(dp2223
sI102381
(dp2224
sI102382
(dp2225
sI102383
(dp2226
sI102384
(dp2227
sI102385
(dp2228
sI102386
(dp2229
sI102387
(dp2230
sI102388
(dp2231
sI102389
(dp2232
sI102390
(dp2233
sI102391
(dp2234
sI102392
(dp2235
sI102393
(dp2236
sI102394
(dp2237
sI102395
(dp2238
sI102396
(dp2239
sI102397
(dp2240
sI102398
(dp2241
sI102399
(dp2242
sI102400
(dp2243
sI102401
(dp2244
sI102402
(dp2245
sI102403
(dp2246
sI102404
(dp2247
sI102405
(dp2248
sI102406
(dp2249
sI102407
(dp2250
sI102408
(dp2251
sI102409
(dp2252
sI102410
(dp2253
sI102411
(dp2254
sI102412
(dp2255
sI102413
(dp2256
sI102414
(dp2257
sI102415
(dp2258
sI102416
(dp2259
sI102417
(dp2260
sI102418
(dp2261
sI102419
(dp2262
sI102420
(dp2263
sI102421
(dp2264
sI102422
(dp2265
sI102423
(dp2266
sI102424
(dp2267
sI102425
(dp2268
sI102426
(dp2269
sI102427
(dp2270
sI102428
(dp2271
sI102429
(dp2272
sI102430
(dp2273
sI102431
(dp2274
sI102432
(dp2275
sI102433
(dp2276
sI102434
(dp2277
sI102435
(dp2278
sI102436
(dp2279
sI102437
(dp2280
sI102438
(dp2281
sI102439
(dp2282
sI102440
(dp2283
sI102441
(dp2284
sI102442
(dp2285
sI102443
(dp2286
sI102444
(dp2287
sI102445
(dp2288
sI102446
(dp2289
sI102447
(dp2290
sI102448
(dp2291
sI102449
(dp2292
sI102450
(dp2293
sI102451
(dp2294
sI102452
(dp2295
sI102453
(dp2296
sI102454
(dp2297
sI102455
(dp2298
sI102456
(dp2299
sI102457
(dp2300
sI102458
(dp2301
sI102459
(dp2302
sI102460
(dp2303
sI102461
(dp2304
sI102462
(dp2305
sI102463
(dp2306
sI102464
(dp2307
sI102465
(dp2308
sI102466
(dp2309
sI102467
(dp2310
sI102468
(dp2311
sI102469
(dp2312
sI102470
(dp2313
sI102471
(dp2314
sI102472
(dp2315
sI102473
(dp2316
sI102474
(dp2317
sI102475
(dp2318
sI102476
(dp2319
sI102477
(dp2320
sI102478
(dp2321
sI102479
(dp2322
sI102480
(dp2323
sI102481
(dp2324
sI102482
(dp2325
sI102483
(dp2326
sI102484
(dp2327
sI102485
(dp2328
sI102486
(dp2329
sI102487
(dp2330
sI102488
(dp2331
sI102490
(dp2332
sI102491
(dp2333
sI102492
(dp2334
sI102493
(dp2335
sI102494
(dp2336
sI102495
(dp2337
sI102496
(dp2338
sI102497
(dp2339
sI102498
(dp2340
sI102499
(dp2341
sI102500
(dp2342
sI102501
(dp2343
sI102502
(dp2344
sI102503
(dp2345
sI102504
(dp2346
sI102505
(dp2347
sI102506
(dp2348
sI102507
(dp2349
sI102508
(dp2350
sI102509
(dp2351
sI102510
(dp2352
sI102511
(dp2353
sI102512
(dp2354
sI102513
(dp2355
sI102514
(dp2356
sI102515
(dp2357
sI102516
(dp2358
sI102517
(dp2359
sI102519
(dp2360
sI102520
(dp2361
sI102521
(dp2362
sI102522
(dp2363
sI102523
(dp2364
sI102524
(dp2365
sI102525
(dp2366
sI102526
(dp2367
sI102527
(dp2368
sI102528
(dp2369
sI102529
(dp2370
sI102530
(dp2371
sI102531
(dp2372
sI102532
(dp2373
sI102533
(dp2374
sI102534
(dp2375
sI102535
(dp2376
sI102536
(dp2377
sI102537
(dp2378
sI102538
(dp2379
sI102539
(dp2380
sI102540
(dp2381
sI102541
(dp2382
sI102542
(dp2383
sI102543
(dp2384
sI102544
(dp2385
sI102546
(dp2386
sI102547
(dp2387
sI102548
(dp2388
sI102549
(dp2389
sI102550
(dp2390
sI102551
(dp2391
sI102552
(dp2392
sI102553
(dp2393
sI102554
(dp2394
sI102555
(dp2395
sI102556
(dp2396
sI102557
(dp2397
sI102558
(dp2398
sI102559
(dp2399
sI102560
(dp2400
sI102561
(dp2401
sI102562
(dp2402
sI102563
(dp2403
sI102564
(dp2404
sI102565
(dp2405
sI102566
(dp2406
sI102567
(dp2407
sI102568
(dp2408
sI102569
(dp2409
sI102570
(dp2410
sI102571
(dp2411
sI102572
(dp2412
sI102573
(dp2413
sI102574
(dp2414
sI102575
(dp2415
sI102576
(dp2416
sI102577
(dp2417
sI102578
(dp2418
sI102579
(dp2419
sI102580
(dp2420
sI102581
(dp2421
sI102582
(dp2422
sI102583
(dp2423
sI102584
(dp2424
sI102585
(dp2425
sI102586
(dp2426
sI102587
(dp2427
sI102588
(dp2428
sI102589
(dp2429
sI102590
(dp2430
sI102591
(dp2431
sI102592
(dp2432
sI102593
(dp2433
sI102594
(dp2434
sI102595
(dp2435
sI102596
(dp2436
sI102597
(dp2437
sI102598
(dp2438
sI102599
(dp2439
sI102600
(dp2440
sI102601
(dp2441
sI102602
(dp2442
sI102603
(dp2443
sI102604
(dp2444
sI102605
(dp2445
sI102606
(dp2446
sI102607
(dp2447
sI102608
(dp2448
sI102609
(dp2449
sI102610
(dp2450
sI102611
(dp2451
sI102612
(dp2452
sI102613
(dp2453
sI102614
(dp2454
sI102615
(dp2455
sI102616
(dp2456
sI102617
(dp2457
sI102618
(dp2458
sI102619
(dp2459
sI102620
(dp2460
sI102621
(dp2461
sI102622
(dp2462
sI102623
(dp2463
sI102624
(dp2464
sI102625
(dp2465
sI102626
(dp2466
sI102627
(dp2467
sI102628
(dp2468
sI102629
(dp2469
sI102631
(dp2470
sI102632
(dp2471
sI102633
(dp2472
sI102634
(dp2473
sI102635
(dp2474
sI102636
(dp2475
sI102637
(dp2476
sI102638
(dp2477
sI102639
(dp2478
sI102640
(dp2479
sI102641
(dp2480
sI102642
(dp2481
sI102643
(dp2482
sI102644
(dp2483
sI102645
(dp2484
sI102646
(dp2485
sI102647
(dp2486
sI102648
(dp2487
sI102649
(dp2488
sI102650
(dp2489
sI102651
(dp2490
sI102652
(dp2491
sI102653
(dp2492
sI102654
(dp2493
sI102655
(dp2494
sI102656
(dp2495
sI102657
(dp2496
sI102658
(dp2497
sI102659
(dp2498
sI102660
(dp2499
sI102661
(dp2500
sI102662
(dp2501
sI102663
(dp2502
sI102664
(dp2503
sI102665
(dp2504
sI102666
(dp2505
sI102667
(dp2506
sI102668
(dp2507
sI102669
(dp2508
sI102670
(dp2509
sI102671
(dp2510
sI102672
(dp2511
sI102673
(dp2512
sI102674
(dp2513
sI102675
(dp2514
sI102676
(dp2515
sI102677
(dp2516
sI102678
(dp2517
sI102679
(dp2518
sI102680
(dp2519
sI102681
(dp2520
sI102682
(dp2521
sI102683
(dp2522
sI102684
(dp2523
sI102685
(dp2524
sI102686
(dp2525
sI102687
(dp2526
sI102688
(dp2527
sI102689
(dp2528
sI102690
(dp2529
sI102691
(dp2530
sI102692
(dp2531
sI102693
(dp2532
sI102694
(dp2533
sI102695
(dp2534
sI102696
(dp2535
sI102697
(dp2536
sI102698
(dp2537
sI102699
(dp2538
sI102700
(dp2539
sI102701
(dp2540
sI102702
(dp2541
sI102703
(dp2542
sI102704
(dp2543
sI102705
(dp2544
sI102706
(dp2545
sI102707
(dp2546
sI102708
(dp2547
sI102709
(dp2548
sI102710
(dp2549
sI102711
(dp2550
sI102713
(dp2551
sI102714
(dp2552
sI102715
(dp2553
sI102716
(dp2554
sI102717
(dp2555
sI102718
(dp2556
sI102719
(dp2557
sI102720
(dp2558
sI102721
(dp2559
sI102722
(dp2560
sI102723
(dp2561
sI102724
(dp2562
sI102725
(dp2563
sI102726
(dp2564
sI102727
(dp2565
sI102728
(dp2566
sI102729
(dp2567
sI102730
(dp2568
sI102731
(dp2569
sI102732
(dp2570
sI102733
(dp2571
sI102734
(dp2572
sI102735
(dp2573
sI102736
(dp2574
sI102737
(dp2575
sI102738
(dp2576
sI102739
(dp2577
sI102740
(dp2578
sI102741
(dp2579
sI102742
(dp2580
sI102743
(dp2581
sI102744
(dp2582
sI102745
(dp2583
sI102746
(dp2584
sI102747
(dp2585
sI102748
(dp2586
sI102749
(dp2587
sI102750
(dp2588
sI102751
(dp2589
sI102752
(dp2590
sI102753
(dp2591
sI102754
(dp2592
sI102755
(dp2593
sI102756
(dp2594
sI102757
(dp2595
sI102758
(dp2596
sI102759
(dp2597
sI102760
(dp2598
sI102761
(dp2599
sI102762
(dp2600
sI102763
(dp2601
sI102764
(dp2602
sI102765
(dp2603
sI102766
(dp2604
sI102767
(dp2605
sI102768
(dp2606
sI102769
(dp2607
sI102770
(dp2608
sI102771
(dp2609
sI102772
(dp2610
sI102773
(dp2611
sI102774
(dp2612
sI102775
(dp2613
sI102776
(dp2614
sI102777
(dp2615
sI102778
(dp2616
sI102779
(dp2617
sI102780
(dp2618
sI102781
(dp2619
sI102782
(dp2620
sI102783
(dp2621
sI102784
(dp2622
sI102785
(dp2623
sI102786
(dp2624
sI102787
(dp2625
sI102788
(dp2626
sI102789
(dp2627
sI102790
(dp2628
sI102791
(dp2629
sI102792
(dp2630
sI102793
(dp2631
sI102794
(dp2632
sI102795
(dp2633
sI102796
(dp2634
sI102797
(dp2635
sI102798
(dp2636
sI102799
(dp2637
sI102800
(dp2638
sI102801
(dp2639
sI102802
(dp2640
sI102803
(dp2641
sI102804
(dp2642
sI102805
(dp2643
sI102806
(dp2644
sI102807
(dp2645
sI102808
(dp2646
sI102809
(dp2647
sI102810
(dp2648
sI102811
(dp2649
sI102812
(dp2650
sI102813
(dp2651
sI102814
(dp2652
sI102815
(dp2653
sI102816
(dp2654
sI102817
(dp2655
sI102818
(dp2656
sI102819
(dp2657
sI102820
(dp2658
sI102821
(dp2659
sI102822
(dp2660
sI102823
(dp2661
sI102824
(dp2662
sI102825
(dp2663
sI102826
(dp2664
sI102827
(dp2665
sI102828
(dp2666
sI102829
(dp2667
sI102830
(dp2668
sI102831
(dp2669
sI102832
(dp2670
sI102833
(dp2671
sI102834
(dp2672
sI102835
(dp2673
sI102836
(dp2674
sI102837
(dp2675
sI102838
(dp2676
sI102839
(dp2677
sI102840
(dp2678
sI102841
(dp2679
sI102842
(dp2680
sI102843
(dp2681
sI102844
(dp2682
sI102845
(dp2683
sI102846
(dp2684
sI102847
(dp2685
sI102848
(dp2686
sI102849
(dp2687
sI102850
(dp2688
sI102851
(dp2689
sI102852
(dp2690
sI102853
(dp2691
sI102854
(dp2692
sI102855
(dp2693
sI102856
(dp2694
sI102857
(dp2695
sI102858
(dp2696
sI102859
(dp2697
sI102860
(dp2698
sI102861
(dp2699
sI102862
(dp2700
sI102863
(dp2701
sI102864
(dp2702
sI102865
(dp2703
sI102866
(dp2704
sI102867
(dp2705
sI102868
(dp2706
sI102869
(dp2707
sI102870
(dp2708
sI102871
(dp2709
sI102872
(dp2710
sI102873
(dp2711
sI102874
(dp2712
sI102875
(dp2713
sI102876
(dp2714
sI102877
(dp2715
sI102878
(dp2716
sI102879
(dp2717
sI102880
(dp2718
sI102881
(dp2719
sI102882
(dp2720
sI102883
(dp2721
sI102884
(dp2722
sI102885
(dp2723
sI102886
(dp2724
sI102887
(dp2725
sI102888
(dp2726
sI102889
(dp2727
sI102890
(dp2728
sI102891
(dp2729
sI102892
(dp2730
sI102893
(dp2731
sI102894
(dp2732
sI102895
(dp2733
sI102896
(dp2734
sI102897
(dp2735
sI102898
(dp2736
sI102899
(dp2737
sI102900
(dp2738
sI102901
(dp2739
sI102902
(dp2740
sI102903
(dp2741
sI102904
(dp2742
sI102905
(dp2743
sI102906
(dp2744
sI102907
(dp2745
sI102908
(dp2746
sI102909
(dp2747
sI102910
(dp2748
sI102911
(dp2749
sI102912
(dp2750
sI102913
(dp2751
sI102914
(dp2752
sI102915
(dp2753
sI102916
(dp2754
sI102917
(dp2755
sI102918
(dp2756
sI102919
(dp2757
sI102920
(dp2758
sI102921
(dp2759
sI102922
(dp2760
sI102923
(dp2761
sI102924
(dp2762
sI102925
(dp2763
sI102926
(dp2764
sI102927
(dp2765
sI102928
(dp2766
sI102929
(dp2767
sI102930
(dp2768
sI102931
(dp2769
sI102932
(dp2770
sI102933
(dp2771
sI102934
(dp2772
sI102935
(dp2773
sI102936
(dp2774
sI102937
(dp2775
sI102938
(dp2776
sI102939
(dp2777
sI102940
(dp2778
sI102941
(dp2779
sI102942
(dp2780
sI102943
(dp2781
sI102944
(dp2782
sI102945
(dp2783
sI102946
(dp2784
sI102947
(dp2785
sI102948
(dp2786
sI102949
(dp2787
sI102950
(dp2788
sI102951
(dp2789
sI102952
(dp2790
sI102953
(dp2791
sI102954
(dp2792
sI102955
(dp2793
sI102956
(dp2794
sI102957
(dp2795
sI102958
(dp2796
sI102959
(dp2797
sI102960
(dp2798
sI102961
(dp2799
sI102962
(dp2800
sI102963
(dp2801
sI102964
(dp2802
sI102965
(dp2803
sI102966
(dp2804
sI102967
(dp2805
sI102968
(dp2806
sI102969
(dp2807
sI102970
(dp2808
sI102971
(dp2809
sI102972
(dp2810
sI102973
(dp2811
sI102974
(dp2812
sI102975
(dp2813
sI102976
(dp2814
sI102977
(dp2815
sI102978
(dp2816
sI102979
(dp2817
sI102980
(dp2818
sI102981
(dp2819
sI102982
(dp2820
sI102983
(dp2821
sI102984
(dp2822
sI102985
(dp2823
sI102986
(dp2824
sI102987
(dp2825
sI102988
(dp2826
sI102989
(dp2827
sI102990
(dp2828
sI102991
(dp2829
sI102992
(dp2830
sI102993
(dp2831
sI102994
(dp2832
sI102995
(dp2833
sI102996
(dp2834
sI102997
(dp2835
sI102998
(dp2836
sI102999
(dp2837
sI103000
(dp2838
sI103001
(dp2839
sI103002
(dp2840
sI103003
(dp2841
sI103004
(dp2842
sI103005
(dp2843
sI103007
(dp2844
sI103008
(dp2845
sI103009
(dp2846
sI103010
(dp2847
sI103011
(dp2848
sI103012
(dp2849
sI103013
(dp2850
sI103014
(dp2851
sI103015
(dp2852
sI103016
(dp2853
sI103017
(dp2854
sI103018
(dp2855
sI103019
(dp2856
sI103020
(dp2857
sI103021
(dp2858
sI103022
(dp2859
sI103023
(dp2860
sI103024
(dp2861
sI103025
(dp2862
sI103026
(dp2863
sI103027
(dp2864
sI103028
(dp2865
sI103029
(dp2866
sI103030
(dp2867
sI103031
(dp2868
sI103032
(dp2869
sI103033
(dp2870
sI103034
(dp2871
sI103035
(dp2872
sI103036
(dp2873
sI103037
(dp2874
sI103038
(dp2875
sI103039
(dp2876
sI103040
(dp2877
sI103041
(dp2878
sI103042
(dp2879
sI103043
(dp2880
sI103044
(dp2881
sI103045
(dp2882
sI103046
(dp2883
sI103047
(dp2884
sI103048
(dp2885
sI103049
(dp2886
sI103050
(dp2887
sI103051
(dp2888
sI103052
(dp2889
sI103053
(dp2890
sI103054
(dp2891
sI103055
(dp2892
sI103056
(dp2893
sI103057
(dp2894
sI103058
(dp2895
sI103059
(dp2896
sI103060
(dp2897
sI103061
(dp2898
sI103062
(dp2899
sI103063
(dp2900
sI103064
(dp2901
sI103065
(dp2902
sI103066
(dp2903
sI103067
(dp2904
sI103068
(dp2905
sI103069
(dp2906
sI103070
(dp2907
sI103071
(dp2908
sI103072
(dp2909
sI103073
(dp2910
sI103074
(dp2911
sI103075
(dp2912
sI103076
(dp2913
sI103077
(dp2914
sI103078
(dp2915
sI103079
(dp2916
sI103080
(dp2917
sI103081
(dp2918
sI103082
(dp2919
sI103083
(dp2920
sI103084
(dp2921
sI103085
(dp2922
sI103086
(dp2923
sI103087
(dp2924
sI103088
(dp2925
sI103089
(dp2926
sI103090
(dp2927
sI103091
(dp2928
sI103092
(dp2929
sI103093
(dp2930
sI103094
(dp2931
sI103095
(dp2932
sI103096
(dp2933
sI103097
(dp2934
sI103098
(dp2935
sI103099
(dp2936
sI103100
(dp2937
sI103101
(dp2938
sI103102
(dp2939
sI103103
(dp2940
sI103104
(dp2941
sI103105
(dp2942
sI103106
(dp2943
sI103107
(dp2944
sI103108
(dp2945
sI103109
(dp2946
sI103110
(dp2947
sI103111
(dp2948
sI103112
(dp2949
sI103113
(dp2950
sI103114
(dp2951
sI103115
(dp2952
sI103116
(dp2953
sI103117
(dp2954
sI103118
(dp2955
sI103119
(dp2956
sI103120
(dp2957
sI103121
(dp2958
sI103122
(dp2959
sI103123
(dp2960
sI103124
(dp2961
sI103125
(dp2962
sI103126
(dp2963
sI103127
(dp2964
sI103128
(dp2965
sI103129
(dp2966
sI103130
(dp2967
sI103131
(dp2968
sI103132
(dp2969
sI103133
(dp2970
sI103134
(dp2971
sI103135
(dp2972
sI103136
(dp2973
sI103137
(dp2974
sI103138
(dp2975
sI103139
(dp2976
sI103140
(dp2977
sI103141
(dp2978
sI103142
(dp2979
sI103143
(dp2980
sI103144
(dp2981
sI103145
(dp2982
sI103146
(dp2983
sI103147
(dp2984
sI103148
(dp2985
sI103149
(dp2986
sI103150
(dp2987
sI103151
(dp2988
sI103152
(dp2989
sI103153
(dp2990
sI103154
(dp2991
sI103155
(dp2992
sI103156
(dp2993
sI103157
(dp2994
sI103158
(dp2995
sI103159
(dp2996
sI103160
(dp2997
sI103161
(dp2998
sI103162
(dp2999
sI103163
(dp3000
sI103164
(dp3001
sI103165
(dp3002
sI103166
(dp3003
sI103167
(dp3004
sI103168
(dp3005
sI103169
(dp3006
sI103170
(dp3007
sI103171
(dp3008
sI103172
(dp3009
sI103173
(dp3010
sI103174
(dp3011
sI103175
(dp3012
sI103176
(dp3013
sI103177
(dp3014
sI103178
(dp3015
sI103179
(dp3016
sI103180
(dp3017
sI103181
(dp3018
sI103182
(dp3019
sI103183
(dp3020
sI103184
(dp3021
sI103185
(dp3022
sI103186
(dp3023
sI103187
(dp3024
sI103188
(dp3025
sI103189
(dp3026
sI103190
(dp3027
sI103191
(dp3028
sI103192
(dp3029
sI103193
(dp3030
sI103194
(dp3031
sI103195
(dp3032
sI103196
(dp3033
sI103197
(dp3034
sI103198
(dp3035
sI103199
(dp3036
sI103200
(dp3037
sI103201
(dp3038
sI103202
(dp3039
sI103203
(dp3040
sI103204
(dp3041
sI103205
(dp3042
sI103206
(dp3043
sI103207
(dp3044
sI103208
(dp3045
sI103209
(dp3046
sI103210
(dp3047
sI103211
(dp3048
sI103212
(dp3049
sI103213
(dp3050
sI103214
(dp3051
sI103215
(dp3052
sI103216
(dp3053
sI103217
(dp3054
sI103218
(dp3055
sI103219
(dp3056
sI103220
(dp3057
sI103221
(dp3058
sI103222
(dp3059
sI103223
(dp3060
sI103224
(dp3061
sI103225
(dp3062
sI103226
(dp3063
sI103227
(dp3064
sI103228
(dp3065
sI103229
(dp3066
sI103230
(dp3067
sI103231
(dp3068
sI103232
(dp3069
sI103233
(dp3070
sI103234
(dp3071
sI103235
(dp3072
sI103236
(dp3073
sI103237
(dp3074
sI103238
(dp3075
sI103239
(dp3076
sI103240
(dp3077
sI103241
(dp3078
sI103242
(dp3079
sI103243
(dp3080
sI103244
(dp3081
sI103245
(dp3082
sI103246
(dp3083
sI103247
(dp3084
sI103248
(dp3085
sI103249
(dp3086
sI103250
(dp3087
sI103251
(dp3088
sI103252
(dp3089
sI103253
(dp3090
sI103254
(dp3091
sI103255
(dp3092
sI103256
(dp3093
sI103257
(dp3094
sI103258
(dp3095
sI103259
(dp3096
sI103260
(dp3097
sI103261
(dp3098
sI103262
(dp3099
sI103263
(dp3100
sI103264
(dp3101
sI103265
(dp3102
sI103266
(dp3103
sI103267
(dp3104
sI103268
(dp3105
sI103269
(dp3106
sI103270
(dp3107
sI103271
(dp3108
sI103272
(dp3109
sI103273
(dp3110
sI103274
(dp3111
sI103275
(dp3112
sI103276
(dp3113
sI103277
(dp3114
sI103278
(dp3115
sI103279
(dp3116
sI103280
(dp3117
sI103281
(dp3118
sI103282
(dp3119
sI103283
(dp3120
sI103284
(dp3121
sI103285
(dp3122
sI103286
(dp3123
sI103287
(dp3124
sI103288
(dp3125
sI103289
(dp3126
sI103290
(dp3127
sI103291
(dp3128
sI103292
(dp3129
sI103293
(dp3130
sI103294
(dp3131
sI103295
(dp3132
sI103296
(dp3133
sI103297
(dp3134
sI103298
(dp3135
sI103299
(dp3136
sI103300
(dp3137
sI103301
(dp3138
sI103302
(dp3139
sI103303
(dp3140
sI103304
(dp3141
sI103305
(dp3142
sI103306
(dp3143
sI103307
(dp3144
sI103308
(dp3145
sI103309
(dp3146
sI103310
(dp3147
sI103311
(dp3148
sI103312
(dp3149
sI103313
(dp3150
sI103314
(dp3151
sI103315
(dp3152
sI103316
(dp3153
sI103317
(dp3154
sI103318
(dp3155
sI103319
(dp3156
sI103320
(dp3157
sI103321
(dp3158
sI103322
(dp3159
sI103323
(dp3160
sI103324
(dp3161
sI103325
(dp3162
sI103326
(dp3163
sI103327
(dp3164
sI103328
(dp3165
sI103329
(dp3166
sI103330
(dp3167
sI103331
(dp3168
sI103332
(dp3169
sI103333
(dp3170
sI103334
(dp3171
sI103335
(dp3172
sI103336
(dp3173
sI103337
(dp3174
sI103338
(dp3175
sI103339
(dp3176
sI103340
(dp3177
sI103341
(dp3178
sI103342
(dp3179
sI103343
(dp3180
sI103344
(dp3181
sI103345
(dp3182
sI103346
(dp3183
sI103347
(dp3184
sI103348
(dp3185
sI103349
(dp3186
sI103350
(dp3187
sI103351
(dp3188
sI103352
(dp3189
sI103353
(dp3190
sI103354
(dp3191
sI103355
(dp3192
sI103356
(dp3193
sI103357
(dp3194
sI103358
(dp3195
sI103359
(dp3196
sI103360
(dp3197
sI103361
(dp3198
sI103362
(dp3199
sI103363
(dp3200
sI103364
(dp3201
sI103365
(dp3202
sI103366
(dp3203
sI103367
(dp3204
sI103368
(dp3205
sI103369
(dp3206
sI103370
(dp3207
sI103371
(dp3208
sI103372
(dp3209
sI103373
(dp3210
sI103374
(dp3211
sI103375
(dp3212
sI103377
(dp3213
sI103379
(dp3214
sI103380
(dp3215
sI103381
(dp3216
sI103382
(dp3217
sI103383
(dp3218
sI103384
(dp3219
sI103385
(dp3220
sI103386
(dp3221
sI103387
(dp3222
sI103388
(dp3223
sI103389
(dp3224
sI103390
(dp3225
sI103391
(dp3226
sI103392
(dp3227
sI103393
(dp3228
sI103394
(dp3229
sI103395
(dp3230
sI103396
(dp3231
sI103397
(dp3232
sI103398
(dp3233
sI103399
(dp3234
sI103400
(dp3235
sI103401
(dp3236
sI103402
(dp3237
sI103403
(dp3238
sI103404
(dp3239
sI103405
(dp3240
sI103406
(dp3241
sI103407
(dp3242
sI103408
(dp3243
sI103409
(dp3244
sI103410
(dp3245
sI103411
(dp3246
sI103412
(dp3247
sI103413
(dp3248
sI103414
(dp3249
sI103415
(dp3250
sI103416
(dp3251
sI103417
(dp3252
sI103418
(dp3253
sI103419
(dp3254
sI103420
(dp3255
sI103421
(dp3256
sI103422
(dp3257
sI103423
(dp3258
sI103424
(dp3259
sI103425
(dp3260
sI103426
(dp3261
sI103427
(dp3262
sI103428
(dp3263
sI103429
(dp3264
sI103430
(dp3265
sI103431
(dp3266
sI103432
(dp3267
sI103433
(dp3268
sI103434
(dp3269
sI103435
(dp3270
sI103436
(dp3271
sI103437
(dp3272
sI103438
(dp3273
sI103439
(dp3274
sI103440
(dp3275
sI103441
(dp3276
sI103442
(dp3277
sI103443
(dp3278
sI103444
(dp3279
sI103445
(dp3280
sI103446
(dp3281
sI103447
(dp3282
sI103448
(dp3283
sI103449
(dp3284
sI103450
(dp3285
sI103451
(dp3286
sI103452
(dp3287
sI103453
(dp3288
sI103454
(dp3289
sI103455
(dp3290
sI103456
(dp3291
sI103457
(dp3292
sI103458
(dp3293
sI103459
(dp3294
sI103460
(dp3295
sI103461
(dp3296
sI103462
(dp3297
sI103463
(dp3298
sI103464
(dp3299
sI103465
(dp3300
sI103466
(dp3301
sI103467
(dp3302
sI103468
(dp3303
sI103469
(dp3304
sI103470
(dp3305
sI103471
(dp3306
sI103472
(dp3307
sI103473
(dp3308
sI103474
(dp3309
sI103475
(dp3310
sI103476
(dp3311
sI103478
(dp3312
sI103479
(dp3313
sI103480
(dp3314
sI103481
(dp3315
sI103482
(dp3316
sI103483
(dp3317
sI103486
(dp3318
sI103487
(dp3319
sI103488
(dp3320
sI103489
(dp3321
sI103490
(dp3322
sI103492
(dp3323
sI103493
(dp3324
sI103494
(dp3325
sI103495
(dp3326
sI103496
(dp3327
sI103497
(dp3328
sI103500
(dp3329
sI103501
(dp3330
sI103502
(dp3331
sI103503
(dp3332
sI103504
(dp3333
sI103505
(dp3334
sI103506
(dp3335
sI103508
(dp3336
sI103509
(dp3337
sI103510
(dp3338
sI103511
(dp3339
sI103512
(dp3340
sI103513
(dp3341
sI103514
(dp3342
sI103515
(dp3343
sI103516
(dp3344
sI103517
(dp3345
sI103518
(dp3346
sI103519
(dp3347
sI103520
(dp3348
sI103521
(dp3349
sI103522
(dp3350
sI103523
(dp3351
sI103524
(dp3352
sI103525
(dp3353
sI103526
(dp3354
sI103527
(dp3355
sI103528
(dp3356
sI103529
(dp3357
sI103530
(dp3358
sI103531
(dp3359
sI103532
(dp3360
sI103533
(dp3361
sI103534
(dp3362
sI103535
(dp3363
sI103536
(dp3364
sI103537
(dp3365
sI103538
(dp3366
sI103539
(dp3367
sI103540
(dp3368
sI103541
(dp3369
sI103542
(dp3370
sI103543
(dp3371
sI103544
(dp3372
sI103545
(dp3373
sI103546
(dp3374
sI103547
(dp3375
sI103548
(dp3376
sI103549
(dp3377
sI103550
(dp3378
sI103551
(dp3379
sI103552
(dp3380
sI103553
(dp3381
sI103554
(dp3382
sI103555
(dp3383
sI103556
(dp3384
sI103557
(dp3385
sI103558
(dp3386
sI103559
(dp3387
sI103560
(dp3388
sI103561
(dp3389
sI103562
(dp3390
sI103563
(dp3391
sI103564
(dp3392
sI103565
(dp3393
sI103566
(dp3394
sI103567
(dp3395
sI103568
(dp3396
sI103569
(dp3397
sI103570
(dp3398
sI103571
(dp3399
sI103572
(dp3400
sI103573
(dp3401
sI103574
(dp3402
sI103575
(dp3403
sI103576
(dp3404
sI103577
(dp3405
sI103578
(dp3406
sI103579
(dp3407
sI103580
(dp3408
sI103581
(dp3409
sI103585
(dp3410
sI103586
(dp3411
sI103587
(dp3412
sI103588
(dp3413
sI103589
(dp3414
sI103590
(dp3415
sI103591
(dp3416
sI103592
(dp3417
sI103593
(dp3418
sI103594
(dp3419
sI103595
(dp3420
sI103596
(dp3421
sI103597
(dp3422
sI103599
(dp3423
sI103600
(dp3424
sI103601
(dp3425
sI103602
(dp3426
sI103603
(dp3427
sI103604
(dp3428
sI103605
(dp3429
sI103606
(dp3430
sI103607
(dp3431
sI103608
(dp3432
sI103609
(dp3433
sI103610
(dp3434
sI103611
(dp3435
sI103612
(dp3436
sI103613
(dp3437
sI103614
(dp3438
sI103615
(dp3439
sI103616
(dp3440
sI103617
(dp3441
sI103618
(dp3442
sI103619
(dp3443
sI103620
(dp3444
sI103621
(dp3445
sI103622
(dp3446
sI103623
(dp3447
sI103624
(dp3448
sI103625
(dp3449
sI103626
(dp3450
sI103627
(dp3451
sI103628
(dp3452
sI103629
(dp3453
sI103630
(dp3454
sI103631
(dp3455
sI103632
(dp3456
sI103633
(dp3457
sI103634
(dp3458
sI103635
(dp3459
sI103636
(dp3460
sI103638
(dp3461
sI103639
(dp3462
sI103640
(dp3463
sI103641
(dp3464
sI103642
(dp3465
sI103643
(dp3466
sI103644
(dp3467
sI103645
(dp3468
sI103646
(dp3469
sI103647
(dp3470
sI103648
(dp3471
sI103649
(dp3472
sI103650
(dp3473
sI103651
(dp3474
sI103652
(dp3475
sI103653
(dp3476
sI103654
(dp3477
sI103655
(dp3478
sI103656
(dp3479
sI103657
(dp3480
sI103658
(dp3481
sI103659
(dp3482
sI103660
(dp3483
sI103661
(dp3484
sI103662
(dp3485
sI103663
(dp3486
sI103664
(dp3487
sI103665
(dp3488
sI103666
(dp3489
sI103667
(dp3490
sI103669
(dp3491
sI103670
(dp3492
sI103671
(dp3493
sI103672
(dp3494
sI103673
(dp3495
sI103674
(dp3496
sI103675
(dp3497
sI103676
(dp3498
sI103677
(dp3499
sI103678
(dp3500
sI103679
(dp3501
sI103680
(dp3502
sI103681
(dp3503
sI103682
(dp3504
sI103683
(dp3505
sI103684
(dp3506
sI103685
(dp3507
sI103686
(dp3508
sI103687
(dp3509
sI103688
(dp3510
sI103689
(dp3511
sI103690
(dp3512
sI103691
(dp3513
sI103692
(dp3514
sI103693
(dp3515
sI103694
(dp3516
sI103695
(dp3517
sI103696
(dp3518
sI103697
(dp3519
sI103698
(dp3520
sI103699
(dp3521
sI103700
(dp3522
sI103701
(dp3523
sI103702
(dp3524
sI103703
(dp3525
sI103704
(dp3526
sI103705
(dp3527
sI103706
(dp3528
sI103707
(dp3529
sI103708
(dp3530
sI103709
(dp3531
sI103710
(dp3532
sI103711
(dp3533
sI103712
(dp3534
sI103713
(dp3535
sI103714
(dp3536
sI103715
(dp3537
sI103716
(dp3538
sI103717
(dp3539
sI103718
(dp3540
sI103719
(dp3541
sI103720
(dp3542
sI103721
(dp3543
sI103722
(dp3544
sI103723
(dp3545
sI103724
(dp3546
sI103726
(dp3547
sI103727
(dp3548
sI103728
(dp3549
sI103729
(dp3550
sI103730
(dp3551
sI103731
(dp3552
sI103732
(dp3553
sI103733
(dp3554
sI103734
(dp3555
sI103735
(dp3556
sI103736
(dp3557
sI103737
(dp3558
sI103738
(dp3559
sI103739
(dp3560
sI103740
(dp3561
sI103741
(dp3562
sI103742
(dp3563
sI103743
(dp3564
sI103744
(dp3565
sI103745
(dp3566
sI103747
(dp3567
sI103748
(dp3568
sI103749
(dp3569
sI103750
(dp3570
sI103751
(dp3571
sI103752
(dp3572
sI103753
(dp3573
sI103754
(dp3574
sI103755
(dp3575
sI103756
(dp3576
sI103757
(dp3577
sI103758
(dp3578
sI103759
(dp3579
sI103760
(dp3580
sI103761
(dp3581
sI103762
(dp3582
sI103763
(dp3583
sI103764
(dp3584
sI103765
(dp3585
sI103766
(dp3586
sI103767
(dp3587
sI103768
(dp3588
sI103769
(dp3589
sI103770
(dp3590
sI103771
(dp3591
sI103772
(dp3592
sI103773
(dp3593
sI103774
(dp3594
sI103775
(dp3595
sI103776
(dp3596
sI103777
(dp3597
sI103778
(dp3598
sI103779
(dp3599
sI103780
(dp3600
sI103781
(dp3601
sI103782
(dp3602
sI103783
(dp3603
sI103784
(dp3604
sI103785
(dp3605
sI103786
(dp3606
sI103787
(dp3607
sI103788
(dp3608
sI103789
(dp3609
sI103790
(dp3610
sI103791
(dp3611
sI103792
(dp3612
sI103793
(dp3613
sI103794
(dp3614
sI103795
(dp3615
sI103796
(dp3616
sI103797
(dp3617
sI103798
(dp3618
sI103799
(dp3619
sI103800
(dp3620
sI103801
(dp3621
sI103802
(dp3622
sI103803
(dp3623
sI103804
(dp3624
sI103805
(dp3625
sI103807
(dp3626
sI103808
(dp3627
sI103809
(dp3628
sI103810
(dp3629
sI103811
(dp3630
sI103812
(dp3631
sI103813
(dp3632
sI103814
(dp3633
sI103815
(dp3634
sI103816
(dp3635
sI103817
(dp3636
sI103818
(dp3637
sI103819
(dp3638
sI103820
(dp3639
sI103821
(dp3640
sI103822
(dp3641
sI103823
(dp3642
sI103824
(dp3643
sI103825
(dp3644
sI103826
(dp3645
sI103827
(dp3646
sI103828
(dp3647
sI103829
(dp3648
sI103830
(dp3649
sI103831
(dp3650
sI103832
(dp3651
sI103833
(dp3652
sI103834
(dp3653
sI103835
(dp3654
sI103836
(dp3655
sI103837
(dp3656
sI103838
(dp3657
sI103839
(dp3658
sI103840
(dp3659
sI103841
(dp3660
sI103842
(dp3661
sI103843
(dp3662
sI103844
(dp3663
sI103845
(dp3664
sI103846
(dp3665
sI103847
(dp3666
sI103848
(dp3667
sI103849
(dp3668
sI103850
(dp3669
sI103851
(dp3670
sI103852
(dp3671
sI103853
(dp3672
sI103854
(dp3673
sI103855
(dp3674
sI103856
(dp3675
sI103857
(dp3676
sI103858
(dp3677
sI103859
(dp3678
sI103860
(dp3679
sI103861
(dp3680
sI103862
(dp3681
sI103863
(dp3682
sI103864
(dp3683
sI103865
(dp3684
sI103866
(dp3685
sI103867
(dp3686
sI103868
(dp3687
sI103869
(dp3688
sI103870
(dp3689
sI103871
(dp3690
sI103872
(dp3691
sI103876
(dp3692
sI103877
(dp3693
sI103878
(dp3694
sI103879
(dp3695
sI103880
(dp3696
sI103881
(dp3697
sI103882
(dp3698
sI103883
(dp3699
sI103884
(dp3700
sI103885
(dp3701
sI103886
(dp3702
sI103887
(dp3703
sI103888
(dp3704
sI103889
(dp3705
sI103890
(dp3706
sI103891
(dp3707
sI103892
(dp3708
sI103893
(dp3709
sI103894
(dp3710
sI103895
(dp3711
sI103896
(dp3712
sI103897
(dp3713
sI103898
(dp3714
sI103899
(dp3715
sI103900
(dp3716
sI103901
(dp3717
sI103902
(dp3718
sI103903
(dp3719
sI103904
(dp3720
sI103905
(dp3721
sI103906
(dp3722
sI103907
(dp3723
sI103909
(dp3724
sI103910
(dp3725
sI103911
(dp3726
sI103912
(dp3727
sI103913
(dp3728
sI103914
(dp3729
sI103915
(dp3730
sI103916
(dp3731
sI103917
(dp3732
sI103918
(dp3733
sI103919
(dp3734
sI103920
(dp3735
sI103921
(dp3736
sI103922
(dp3737
sI103923
(dp3738
sI103924
(dp3739
sI103925
(dp3740
sI103926
(dp3741
sI103927
(dp3742
sI103928
(dp3743
sI103929
(dp3744
sI103930
(dp3745
sI103931
(dp3746
sI103932
(dp3747
sI103933
(dp3748
sI103934
(dp3749
sI103935
(dp3750
sI103936
(dp3751
sI103937
(dp3752
sI103938
(dp3753
sI103939
(dp3754
sI103940
(dp3755
sI103941
(dp3756
sI103942
(dp3757
sI103943
(dp3758
sI103944
(dp3759
sI103945
(dp3760
sI103947
(dp3761
sI103948
(dp3762
sI103949
(dp3763
sI103950
(dp3764
sI103951
(dp3765
sI103952
(dp3766
sI103953
(dp3767
sI103954
(dp3768
sI103955
(dp3769
sI103956
(dp3770
sI103957
(dp3771
sI103958
(dp3772
sI103959
(dp3773
sI103960
(dp3774
sI103961
(dp3775
sI103962
(dp3776
sI103963
(dp3777
sI103964
(dp3778
sI103965
(dp3779
sI103966
(dp3780
sI103967
(dp3781
sI103968
(dp3782
sI103969
(dp3783
sI103970
(dp3784
sI103971
(dp3785
sI103972
(dp3786
sI103973
(dp3787
sI103974
(dp3788
sI103975
(dp3789
sI103976
(dp3790
sI103977
(dp3791
sI103978
(dp3792
sI103979
(dp3793
sI103980
(dp3794
sI103981
(dp3795
sI103982
(dp3796
sI103983
(dp3797
sI103984
(dp3798
sI103985
(dp3799
sI103986
(dp3800
sI103987
(dp3801
sI103988
(dp3802
sI103989
(dp3803
sI103991
(dp3804
sI103992
(dp3805
sI103993
(dp3806
sI103994
(dp3807
sI103995
(dp3808
sI103996
(dp3809
sI103997
(dp3810
sI103998
(dp3811
sI103999
(dp3812
sI104000
(dp3813
sI104001
(dp3814
sI104002
(dp3815
sI104003
(dp3816
sI104004
(dp3817
sI104005
(dp3818
sI104006
(dp3819
sI104007
(dp3820
sI104008
(dp3821
sI104009
(dp3822
sI104010
(dp3823
sI104011
(dp3824
sI104012
(dp3825
sI104013
(dp3826
sI104014
(dp3827
sI104015
(dp3828
sI104016
(dp3829
sI104017
(dp3830
sI104018
(dp3831
sI104019
(dp3832
sI104020
(dp3833
sI104021
(dp3834
sI104022
(dp3835
sI104023
(dp3836
sI104024
(dp3837
sI104025
(dp3838
sI104026
(dp3839
sI104027
(dp3840
sI104028
(dp3841
sI104029
(dp3842
sI104030
(dp3843
sI104031
(dp3844
sI104032
(dp3845
sI104033
(dp3846
sI104034
(dp3847
sI104035
(dp3848
sI104036
(dp3849
sI104037
(dp3850
sI104038
(dp3851
sI104039
(dp3852
sI104040
(dp3853
sI104041
(dp3854
sI104042
(dp3855
sI104043
(dp3856
sI104044
(dp3857
sI104045
(dp3858
sI104046
(dp3859
sI104047
(dp3860
sI104048
(dp3861
sI104049
(dp3862
sI104050
(dp3863
sI104051
(dp3864
sI104052
(dp3865
sI104053
(dp3866
sI104054
(dp3867
sI104055
(dp3868
sI104056
(dp3869
sI104057
(dp3870
sI104058
(dp3871
sI104059
(dp3872
sI104060
(dp3873
sI104061
(dp3874
sI104062
(dp3875
sI104063
(dp3876
sI104064
(dp3877
sI104065
(dp3878
sI104066
(dp3879
sI104067
(dp3880
sI104068
(dp3881
sI104069
(dp3882
sI104070
(dp3883
sI104071
(dp3884
sI104072
(dp3885
sI104073
(dp3886
sI104074
(dp3887
sI104075
(dp3888
sI104076
(dp3889
sI104077
(dp3890
sI104078
(dp3891
sI104079
(dp3892
sI104080
(dp3893
sI104081
(dp3894
sI104082
(dp3895
sI104083
(dp3896
sI104084
(dp3897
sI104086
(dp3898
sI104087
(dp3899
sI104088
(dp3900
sI104089
(dp3901
sI104090
(dp3902
sI104091
(dp3903
sI104092
(dp3904
sI104093
(dp3905
sI104094
(dp3906
sI104095
(dp3907
sI104096
(dp3908
sI104098
(dp3909
sI104099
(dp3910
sI104100
(dp3911
sI104101
(dp3912
sI104102
(dp3913
sI104103
(dp3914
sI104104
(dp3915
sI104105
(dp3916
sI104106
(dp3917
sI104107
(dp3918
sI104108
(dp3919
sI104109
(dp3920
sI104110
(dp3921
sI104111
(dp3922
sI104112
(dp3923
sI104113
(dp3924
sI104114
(dp3925
sI104115
(dp3926
sI104116
(dp3927
sI104117
(dp3928
sI104118
(dp3929
sI104119
(dp3930
sI104120
(dp3931
sI104121
(dp3932
sI104122
(dp3933
sI104123
(dp3934
sI104124
(dp3935
sI104125
(dp3936
sI104127
(dp3937
sI104128
(dp3938
sI104129
(dp3939
sI104130
(dp3940
sI104131
(dp3941
sI104132
(dp3942
sI104133
(dp3943
sI104134
(dp3944
sI104135
(dp3945
sI104136
(dp3946
sI104137
(dp3947
sI104138
(dp3948
sI104139
(dp3949
sI104140
(dp3950
sI104141
(dp3951
sI104142
(dp3952
sI104143
(dp3953
sI104144
(dp3954
sI104145
(dp3955
sI104146
(dp3956
sI104147
(dp3957
sI104148
(dp3958
sI104149
(dp3959
sI104150
(dp3960
sI104151
(dp3961
sI104153
(dp3962
sI104154
(dp3963
sI104155
(dp3964
sI104156
(dp3965
sI104157
(dp3966
sI104158
(dp3967
sI104159
(dp3968
sI104160
(dp3969
sI104161
(dp3970
sI104162
(dp3971
sI104163
(dp3972
sI104164
(dp3973
sI104165
(dp3974
sI104166
(dp3975
sI104167
(dp3976
sI104168
(dp3977
sI104169
(dp3978
sI104170
(dp3979
sI104171
(dp3980
sI104172
(dp3981
sI104173
(dp3982
sI104174
(dp3983
sI104175
(dp3984
sI104176
(dp3985
sI104177
(dp3986
sI104178
(dp3987
sI104179
(dp3988
sI104180
(dp3989
sI104181
(dp3990
sI104182
(dp3991
sI104183
(dp3992
sI104184
(dp3993
sI104185
(dp3994
sI104186
(dp3995
sI104187
(dp3996
sI104188
(dp3997
sI104189
(dp3998
sI104190
(dp3999
sI104191
(dp4000
sI104192
(dp4001
sI104193
(dp4002
sI104194
(dp4003
sI104195
(dp4004
sI104196
(dp4005
sI104197
(dp4006
sI104198
(dp4007
sI104199
(dp4008
sI104200
(dp4009
sI104201
(dp4010
sI104202
(dp4011
sI104203
(dp4012
sI104204
(dp4013
sI104205
(dp4014
sI104206
(dp4015
sI104207
(dp4016
sI104208
(dp4017
sI104209
(dp4018
sI104210
(dp4019
sI104211
(dp4020
sI104212
(dp4021
sI104213
(dp4022
sI104214
(dp4023
sI104215
(dp4024
sI104216
(dp4025
sI104217
(dp4026
sI104218
(dp4027
sI104219
(dp4028
sI104220
(dp4029
sI104221
(dp4030
sI104222
(dp4031
sI104223
(dp4032
sI104224
(dp4033
sI104225
(dp4034
sI104226
(dp4035
sI104227
(dp4036
sI104228
(dp4037
sI104229
(dp4038
sI104230
(dp4039
sI104231
(dp4040
sI104232
(dp4041
sI104233
(dp4042
sI104234
(dp4043
sI104235
(dp4044
sI104236
(dp4045
sI104237
(dp4046
sI104238
(dp4047
sI104239
(dp4048
sI104240
(dp4049
sI104241
(dp4050
sI104242
(dp4051
sI104243
(dp4052
sI104244
(dp4053
sI104245
(dp4054
sI104246
(dp4055
sI104247
(dp4056
sI104248
(dp4057
sI104249
(dp4058
sI104250
(dp4059
sI104251
(dp4060
sI104252
(dp4061
sI104253
(dp4062
sI104254
(dp4063
sI104255
(dp4064
sI104256
(dp4065
sI104257
(dp4066
sI104258
(dp4067
sI104259
(dp4068
sI104260
(dp4069
sI104261
(dp4070
sI104262
(dp4071
sI104263
(dp4072
sI104264
(dp4073
sI104265
(dp4074
sI104266
(dp4075
sI104267
(dp4076
sI104268
(dp4077
sI104269
(dp4078
sI104270
(dp4079
sI104271
(dp4080
sI104272
(dp4081
sI104273
(dp4082
sI104274
(dp4083
sI104275
(dp4084
sI104276
(dp4085
sI104277
(dp4086
sI104278
(dp4087
sI104279
(dp4088
sI104280
(dp4089
sI104281
(dp4090
sI104282
(dp4091
sI104283
(dp4092
sI104284
(dp4093
sI104285
(dp4094
sI104286
(dp4095
sI104287
(dp4096
sI104288
(dp4097
sI104289
(dp4098
sI104290
(dp4099
sI104291
(dp4100
sI104292
(dp4101
sI104293
(dp4102
sI104294
(dp4103
sI104295
(dp4104
sI104296
(dp4105
sI104297
(dp4106
sI104298
(dp4107
sI104299
(dp4108
sI104300
(dp4109
sI104301
(dp4110
sI104302
(dp4111
sI104304
(dp4112
sI104305
(dp4113
sI104306
(dp4114
sI104307
(dp4115
sI104308
(dp4116
sI104309
(dp4117
sI104310
(dp4118
sI104311
(dp4119
sI104312
(dp4120
sI104313
(dp4121
sI104314
(dp4122
sI104315
(dp4123
sI104316
(dp4124
sI104317
(dp4125
sI104318
(dp4126
sI104319
(dp4127
sI104320
(dp4128
sI104321
(dp4129
sI104322
(dp4130
sI104323
(dp4131
sI104324
(dp4132
sI104325
(dp4133
sI104326
(dp4134
sI104327
(dp4135
sI104328
(dp4136
sI104329
(dp4137
sI104330
(dp4138
sI104331
(dp4139
sI104332
(dp4140
sI104333
(dp4141
sI104334
(dp4142
sI104335
(dp4143
sI104336
(dp4144
sI104337
(dp4145
sI104338
(dp4146
sI104339
(dp4147
sI104340
(dp4148
sI104341
(dp4149
sI104342
(dp4150
sI104343
(dp4151
sI104344
(dp4152
sI104345
(dp4153
sI104346
(dp4154
sI104347
(dp4155
sI104348
(dp4156
sI104349
(dp4157
sI104350
(dp4158
sI104351
(dp4159
sI104352
(dp4160
sI104353
(dp4161
sI104354
(dp4162
sI104355
(dp4163
sI104356
(dp4164
sI104357
(dp4165
sI104358
(dp4166
sI104359
(dp4167
sI104360
(dp4168
sI104361
(dp4169
sI104362
(dp4170
sI104363
(dp4171
sI104364
(dp4172
sI104365
(dp4173
sI104366
(dp4174
sI104367
(dp4175
sI104368
(dp4176
sI104369
(dp4177
sI104370
(dp4178
sI104371
(dp4179
sI104372
(dp4180
sI104373
(dp4181
sI104374
(dp4182
sI104375
(dp4183
sI104376
(dp4184
sI104377
(dp4185
sI104378
(dp4186
sI104379
(dp4187
sI104380
(dp4188
sI104381
(dp4189
sI104382
(dp4190
sI104383
(dp4191
sI104384
(dp4192
sI104385
(dp4193
sI104386
(dp4194
sI104387
(dp4195
sI104388
(dp4196
sI104389
(dp4197
sI104390
(dp4198
sI104391
(dp4199
sI104392
(dp4200
sI104393
(dp4201
sI104394
(dp4202
sI104395
(dp4203
sI104396
(dp4204
sI104397
(dp4205
sI104398
(dp4206
sI104399
(dp4207
sI104400
(dp4208
sI104401
(dp4209
sI104402
(dp4210
sI104403
(dp4211
sI104404
(dp4212
sI104405
(dp4213
sI104406
(dp4214
sI104407
(dp4215
sI104409
(dp4216
sI104410
(dp4217
sI104411
(dp4218
sI104412
(dp4219
sI104413
(dp4220
sI104414
(dp4221
sI104415
(dp4222
sI104416
(dp4223
sI104417
(dp4224
sI104418
(dp4225
sI104419
(dp4226
sI104420
(dp4227
sI104421
(dp4228
sI104422
(dp4229
sI104423
(dp4230
sI104424
(dp4231
sI104425
(dp4232
sI104426
(dp4233
sI104427
(dp4234
sI104428
(dp4235
sI104429
(dp4236
sI104430
(dp4237
sI104431
(dp4238
sI104432
(dp4239
sI104433
(dp4240
sI104434
(dp4241
sI104435
(dp4242
sI104436
(dp4243
sI104437
(dp4244
sI104438
(dp4245
sI104439
(dp4246
sI104440
(dp4247
sI104441
(dp4248
sI104442
(dp4249
sI104443
(dp4250
sI104444
(dp4251
sI104445
(dp4252
sI104446
(dp4253
sI104447
(dp4254
sI104448
(dp4255
sI104449
(dp4256
sI104450
(dp4257
sI104451
(dp4258
sI104452
(dp4259
sI104453
(dp4260
sI104454
(dp4261
sI104455
(dp4262
sI104457
(dp4263
sI104458
(dp4264
sI104459
(dp4265
sI104460
(dp4266
sI104461
(dp4267
sI104463
(dp4268
sI104464
(dp4269
sI104465
(dp4270
sI104466
(dp4271
sI104467
(dp4272
sI104468
(dp4273
sI104469
(dp4274
sI104470
(dp4275
sI104471
(dp4276
sI104472
(dp4277
sI104473
(dp4278
sI104474
(dp4279
sI104476
(dp4280
sI104477
(dp4281
sI104478
(dp4282
sI104479
(dp4283
sI104480
(dp4284
sI104481
(dp4285
sI104482
(dp4286
sI104483
(dp4287
sI104484
(dp4288
sI104485
(dp4289
sI104487
(dp4290
sI104489
(dp4291
sI104490
(dp4292
sI104491
(dp4293
sI104492
(dp4294
sI104493
(dp4295
sI104494
(dp4296
sI104495
(dp4297
sI104496
(dp4298
sI104497
(dp4299
sI104498
(dp4300
sI104499
(dp4301
sI104500
(dp4302
sI104501
(dp4303
sI104502
(dp4304
sI104503
(dp4305
sI104504
(dp4306
sI104505
(dp4307
sI104506
(dp4308
sI104507
(dp4309
sI104508
(dp4310
sI104509
(dp4311
sI104510
(dp4312
sI104511
(dp4313
sI104512
(dp4314
sI104513
(dp4315
sI104514
(dp4316
sI104515
(dp4317
sI104516
(dp4318
sI104517
(dp4319
sI104518
(dp4320
sI104519
(dp4321
sI104520
(dp4322
sI104521
(dp4323
sI104522
(dp4324
sI104523
(dp4325
sI104524
(dp4326
sI104525
(dp4327
sI104526
(dp4328
sI104527
(dp4329
sI104528
(dp4330
sI104529
(dp4331
sI104530
(dp4332
sI104531
(dp4333
sI104532
(dp4334
sI104533
(dp4335
sI104534
(dp4336
sI104535
(dp4337
sI104536
(dp4338
sI104537
(dp4339
sI104538
(dp4340
sI104539
(dp4341
sI104540
(dp4342
sI104541
(dp4343
sI104542
(dp4344
sI104543
(dp4345
sI104544
(dp4346
sI104545
(dp4347
sI104546
(dp4348
sI104547
(dp4349
sI104548
(dp4350
sI104549
(dp4351
sI104550
(dp4352
sI104551
(dp4353
sI104552
(dp4354
sI104553
(dp4355
sI104554
(dp4356
sI104555
(dp4357
sI104556
(dp4358
sI104557
(dp4359
sI104558
(dp4360
sI104559
(dp4361
sI104560
(dp4362
sI104561
(dp4363
sI104562
(dp4364
sI104563
(dp4365
sI104564
(dp4366
sI104565
(dp4367
sI104566
(dp4368
sI104567
(dp4369
sI104568
(dp4370
sI104569
(dp4371
sI104570
(dp4372
sI104571
(dp4373
sI104572
(dp4374
sI104573
(dp4375
sI104574
(dp4376
sI104575
(dp4377
sI104576
(dp4378
sI104578
(dp4379
sI104579
(dp4380
sI104580
(dp4381
sI104582
(dp4382
sI104583
(dp4383
sI104584
(dp4384
sI104585
(dp4385
sI104586
(dp4386
sI104587
(dp4387
sI104588
(dp4388
sI104589
(dp4389
sI104590
(dp4390
sI104591
(dp4391
sI104592
(dp4392
sI104593
(dp4393
sI104595
(dp4394
sI104596
(dp4395
sI104597
(dp4396
sI104598
(dp4397
sI104599
(dp4398
sI104600
(dp4399
sI104601
(dp4400
sI104602
(dp4401
sI104603
(dp4402
sI104604
(dp4403
sI104605
(dp4404
sI104606
(dp4405
sI104607
(dp4406
sI104608
(dp4407
sI104609
(dp4408
sI104610
(dp4409
sI104611
(dp4410
sI104612
(dp4411
sI104613
(dp4412
sI104614
(dp4413
sI104615
(dp4414
sI104616
(dp4415
sI104617
(dp4416
sI104618
(dp4417
sI104619
(dp4418
sI104620
(dp4419
sI104621
(dp4420
sI104622
(dp4421
sI104623
(dp4422
sI104624
(dp4423
sI104625
(dp4424
sI104626
(dp4425
sI104627
(dp4426
sI104628
(dp4427
sI104630
(dp4428
sI104631
(dp4429
sI104632
(dp4430
sI104633
(dp4431
sI104634
(dp4432
sI104635
(dp4433
sI104636
(dp4434
sI104637
(dp4435
sI104638
(dp4436
sI104639
(dp4437
sI104640
(dp4438
sI104641
(dp4439
sI104642
(dp4440
sI104643
(dp4441
sI104644
(dp4442
sI104645
(dp4443
sI104646
(dp4444
sI104647
(dp4445
sI104648
(dp4446
sI104649
(dp4447
sI104650
(dp4448
sI104651
(dp4449
sI104652
(dp4450
sI104653
(dp4451
sI104654
(dp4452
sI104655
(dp4453
sI104656
(dp4454
sI104657
(dp4455
sI104658
(dp4456
sI104659
(dp4457
sI104660
(dp4458
sI104662
(dp4459
sI104663
(dp4460
sI104664
(dp4461
sI104665
(dp4462
sI104666
(dp4463
sI104667
(dp4464
sI104668
(dp4465
sI104669
(dp4466
sI104670
(dp4467
sI104671
(dp4468
sI104672
(dp4469
sI104673
(dp4470
sI104674
(dp4471
sI104675
(dp4472
sI104676
(dp4473
sI104677
(dp4474
sI104678
(dp4475
sI104679
(dp4476
sI104680
(dp4477
sI104681
(dp4478
sI104682
(dp4479
sI104683
(dp4480
sI104684
(dp4481
sI104685
(dp4482
sI104686
(dp4483
sI104687
(dp4484
sI104688
(dp4485
sI104689
(dp4486
sI104690
(dp4487
sI104691
(dp4488
sI104692
(dp4489
sI104693
(dp4490
sI104695
(dp4491
sI104696
(dp4492
sI104697
(dp4493
sI104698
(dp4494
sI104699
(dp4495
sI104700
(dp4496
sI104701
(dp4497
sI104702
(dp4498
sI104703
(dp4499
sI104704
(dp4500
sI104705
(dp4501
sI104706
(dp4502
sI104707
(dp4503
sI104708
(dp4504
sI104709
(dp4505
sI104710
(dp4506
sI104711
(dp4507
sI104712
(dp4508
sI104713
(dp4509
sI104714
(dp4510
sI104715
(dp4511
sI104716
(dp4512
sI104717
(dp4513
sI104718
(dp4514
sI104719
(dp4515
sI104720
(dp4516
sI104721
(dp4517
sI104722
(dp4518
sI104723
(dp4519
sI104724
(dp4520
sI104725
(dp4521
sI104726
(dp4522
sI104727
(dp4523
sI104729
(dp4524
sI104730
(dp4525
sI104731
(dp4526
sI104732
(dp4527
sI104733
(dp4528
sI104734
(dp4529
sI104735
(dp4530
sI104736
(dp4531
sI104737
(dp4532
sI104738
(dp4533
sI104739
(dp4534
sI104740
(dp4535
sI104741
(dp4536
sI104742
(dp4537
sI104745
(dp4538
sI104746
(dp4539
sI104747
(dp4540
sI104748
(dp4541
sI104749
(dp4542
sI104750
(dp4543
sI104751
(dp4544
sI104753
(dp4545
sI104754
(dp4546
sI104755
(dp4547
sI104756
(dp4548
sI104757
(dp4549
sI104758
(dp4550
sI104759
(dp4551
sI104760
(dp4552
sI104761
(dp4553
sI104763
(dp4554
sI104764
(dp4555
sI104766
(dp4556
sI104767
(dp4557
sI104768
(dp4558
sI104769
(dp4559
sI104770
(dp4560
sI104771
(dp4561
sI104772
(dp4562
sI104773
(dp4563
sI104774
(dp4564
sI104775
(dp4565
sI104776
(dp4566
sI104777
(dp4567
sI104778
(dp4568
sI104779
(dp4569
sI104780
(dp4570
sI104781
(dp4571
sI104782
(dp4572
sI104783
(dp4573
sI104784
(dp4574
sI104785
(dp4575
sI104786
(dp4576
sI104787
(dp4577
sI104788
(dp4578
sI104789
(dp4579
sI104790
(dp4580
sI104791
(dp4581
sI104792
(dp4582
sI104793
(dp4583
sI104794
(dp4584
sI104795
(dp4585
sI104796
(dp4586
sI104797
(dp4587
sI104798
(dp4588
sI104799
(dp4589
sI104800
(dp4590
sI104801
(dp4591
sI104802
(dp4592
sI104803
(dp4593
sI104804
(dp4594
sI104805
(dp4595
sI104806
(dp4596
sI104807
(dp4597
sI104808
(dp4598
sI104809
(dp4599
sI104810
(dp4600
sI104811
(dp4601
sI104812
(dp4602
sI104813
(dp4603
sI104815
(dp4604
sI104816
(dp4605
sI104817
(dp4606
sI104818
(dp4607
sI104819
(dp4608
sI104820
(dp4609
sI104821
(dp4610
sI104822
(dp4611
sI104823
(dp4612
sI104824
(dp4613
sI104825
(dp4614
sI104826
(dp4615
sI104827
(dp4616
sI104828
(dp4617
sI104829
(dp4618
sI104831
(dp4619
sI104833
(dp4620
sI104834
(dp4621
sI104835
(dp4622
sI104836
(dp4623
sI104837
(dp4624
sI104838
(dp4625
sI104839
(dp4626
sI104840
(dp4627
sI104841
(dp4628
sI104842
(dp4629
sI104844
(dp4630
sI104845
(dp4631
sI104846
(dp4632
sI104847
(dp4633
sI104848
(dp4634
sI104849
(dp4635
sI104850
(dp4636
sI104851
(dp4637
sI104852
(dp4638
sI104853
(dp4639
sI104854
(dp4640
sI104855
(dp4641
sI104856
(dp4642
sI104857
(dp4643
sI104858
(dp4644
sI104859
(dp4645
sI104860
(dp4646
sI104861
(dp4647
sI104862
(dp4648
sI104863
(dp4649
sI104864
(dp4650
sI104865
(dp4651
sI104866
(dp4652
sI104868
(dp4653
sI104869
(dp4654
sI104870
(dp4655
sI104871
(dp4656
sI104872
(dp4657
sI104873
(dp4658
sI104874
(dp4659
sI104875
(dp4660
sI104876
(dp4661
sI104877
(dp4662
sI104878
(dp4663
sI104879
(dp4664
sI104880
(dp4665
sI104881
(dp4666
sI104882
(dp4667
sI104883
(dp4668
sI104884
(dp4669
sI104885
(dp4670
sI104886
(dp4671
sI104887
(dp4672
sI104888
(dp4673
sI104889
(dp4674
sI104890
(dp4675
sI104891
(dp4676
sI104892
(dp4677
sI104893
(dp4678
sI104894
(dp4679
sI104895
(dp4680
sI104896
(dp4681
sI104897
(dp4682
sI104898
(dp4683
sI104899
(dp4684
sI104900
(dp4685
sI104902
(dp4686
sI104903
(dp4687
sI104904
(dp4688
sI104905
(dp4689
sI104906
(dp4690
sI104907
(dp4691
sI104908
(dp4692
sI104909
(dp4693
sI104910
(dp4694
sI104911
(dp4695
sI104912
(dp4696
sI104913
(dp4697
sI104921
(dp4698
sI104922
(dp4699
sI104923
(dp4700
sI104924
(dp4701
sI104925
(dp4702
sI104926
(dp4703
sI104927
(dp4704
sI104928
(dp4705
sI104929
(dp4706
sI104931
(dp4707
sI104932
(dp4708
sI104933
(dp4709
sI104934
(dp4710
sI104935
(dp4711
sI104937
(dp4712
sI104939
(dp4713
sI104940
(dp4714
sI104941
(dp4715
sI104943
(dp4716
sI104944
(dp4717
sI104945
(dp4718
sI104946
(dp4719
sI104949
(dp4720
sI104950
(dp4721
sI104951
(dp4722
sI104952
(dp4723
sI104953
(dp4724
sI104954
(dp4725
sI104955
(dp4726
sI104956
(dp4727
sI104958
(dp4728
sI104959
(dp4729
sI104960
(dp4730
sI104961
(dp4731
sI104962
(dp4732
sI104963
(dp4733
sI104964
(dp4734
sI104965
(dp4735
sI104966
(dp4736
sI104967
(dp4737
sI104968
(dp4738
sI104969
(dp4739
sI104970
(dp4740
sI104971
(dp4741
sI104972
(dp4742
sI104973
(dp4743
sI104974
(dp4744
sI104975
(dp4745
sI104976
(dp4746
sI104977
(dp4747
sI104978
(dp4748
sI104979
(dp4749
sI104980
(dp4750
sI104981
(dp4751
sI104982
(dp4752
sI104983
(dp4753
sI104984
(dp4754
sI104985
(dp4755
sI104986
(dp4756
sI104987
(dp4757
sI104988
(dp4758
sI104989
(dp4759
sI104990
(dp4760
sI104991
(dp4761
sI104992
(dp4762
sI104993
(dp4763
sI104994
(dp4764
sI104995
(dp4765
sI104996
(dp4766
sI104997
(dp4767
sI104998
(dp4768
sI104999
(dp4769
sI105000
(dp4770
sI105001
(dp4771
sI105002
(dp4772
sI105003
(dp4773
sI105004
(dp4774
sI105006
(dp4775
sI105007
(dp4776
sI105008
(dp4777
sI105009
(dp4778
sI105010
(dp4779
sI105011
(dp4780
sI105012
(dp4781
sI105013
(dp4782
sI105014
(dp4783
sI105015
(dp4784
sI105016
(dp4785
sI105017
(dp4786
sI105018
(dp4787
sI105019
(dp4788
sI105020
(dp4789
sI105021
(dp4790
sI105022
(dp4791
sI105023
(dp4792
sI105024
(dp4793
sI105025
(dp4794
sI105026
(dp4795
sI105027
(dp4796
sI105028
(dp4797
sI105029
(dp4798
sI105030
(dp4799
sI105031
(dp4800
sI105033
(dp4801
sI105034
(dp4802
sI105035
(dp4803
sI105036
(dp4804
sI105037
(dp4805
sI105038
(dp4806
sI105040
(dp4807
sI105041
(dp4808
sI105042
(dp4809
sI105043
(dp4810
sI105046
(dp4811
sI105047
(dp4812
sI105048
(dp4813
sI105049
(dp4814
sI105050
(dp4815
sI105051
(dp4816
sI105052
(dp4817
sI105053
(dp4818
sI105054
(dp4819
sI105055
(dp4820
sI105056
(dp4821
sI105057
(dp4822
sI105058
(dp4823
sI105059
(dp4824
sI105060
(dp4825
sI105061
(dp4826
sI105062
(dp4827
sI105063
(dp4828
sI105064
(dp4829
sI105065
(dp4830
sI105066
(dp4831
sI105067
(dp4832
sI105068
(dp4833
sI105069
(dp4834
sI105070
(dp4835
sI105071
(dp4836
sI105072
(dp4837
sI105073
(dp4838
sI105074
(dp4839
sI105075
(dp4840
sI105076
(dp4841
sI105077
(dp4842
sI105078
(dp4843
sI105079
(dp4844
sI105080
(dp4845
sI105081
(dp4846
sI105082
(dp4847
sI105083
(dp4848
sI105085
(dp4849
sI105086
(dp4850
sI105087
(dp4851
sI105088
(dp4852
sI105089
(dp4853
sI105090
(dp4854
sI105091
(dp4855
sI105092
(dp4856
sI105093
(dp4857
sI105094
(dp4858
sI105095
(dp4859
sI105096
(dp4860
sI105097
(dp4861
sI105098
(dp4862
sI105099
(dp4863
sI105100
(dp4864
sI105101
(dp4865
sI105102
(dp4866
sI105103
(dp4867
sI105104
(dp4868
sI105105
(dp4869
sI105106
(dp4870
sI105107
(dp4871
sI105108
(dp4872
sI105109
(dp4873
sI105110
(dp4874
sI105111
(dp4875
sI105112
(dp4876
sI105113
(dp4877
sI105114
(dp4878
sI105115
(dp4879
sI105116
(dp4880
sI105117
(dp4881
sI105118
(dp4882
sI105119
(dp4883
sI105120
(dp4884
sI105121
(dp4885
sI105122
(dp4886
sI105123
(dp4887
sI105124
(dp4888
sI105125
(dp4889
sI105126
(dp4890
sI105128
(dp4891
sI105129
(dp4892
sI105130
(dp4893
sI105131
(dp4894
sI105132
(dp4895
sI105133
(dp4896
sI105134
(dp4897
sI105135
(dp4898
sI105136
(dp4899
sI105137
(dp4900
sI105138
(dp4901
sI105139
(dp4902
sI105140
(dp4903
sI105141
(dp4904
sI105142
(dp4905
sI105143
(dp4906
sI105144
(dp4907
sI105145
(dp4908
sI105146
(dp4909
sI105147
(dp4910
sI105148
(dp4911
sI105149
(dp4912
sI105150
(dp4913
sI105151
(dp4914
sI105152
(dp4915
sI105153
(dp4916
sI105154
(dp4917
sI105155
(dp4918
sI105156
(dp4919
sI105157
(dp4920
sI105158
(dp4921
sI105159
(dp4922
sI105160
(dp4923
sI105161
(dp4924
sI105162
(dp4925
sI105163
(dp4926
sI105164
(dp4927
sI105165
(dp4928
sI105166
(dp4929
sI105167
(dp4930
sI105168
(dp4931
sI105169
(dp4932
sI105170
(dp4933
sI105171
(dp4934
sI105172
(dp4935
sI105173
(dp4936
sI105174
(dp4937
sI105175
(dp4938
sI105176
(dp4939
sI105177
(dp4940
sI105178
(dp4941
sI105179
(dp4942
sI105180
(dp4943
sI105181
(dp4944
sI105182
(dp4945
sI105183
(dp4946
sI105184
(dp4947
sI105185
(dp4948
sI105186
(dp4949
sI105187
(dp4950
sI105188
(dp4951
sI105189
(dp4952
sI105190
(dp4953
sI105191
(dp4954
sI105192
(dp4955
sI105193
(dp4956
sI105194
(dp4957
sI105195
(dp4958
sI105196
(dp4959
sI105197
(dp4960
sI105198
(dp4961
sI105199
(dp4962
sI105200
(dp4963
sI105201
(dp4964
sI105202
(dp4965
sI105203
(dp4966
sI105204
(dp4967
sI105205
(dp4968
sI105206
(dp4969
sI105207
(dp4970
sI105208
(dp4971
sI105209
(dp4972
sI105210
(dp4973
sI105211
(dp4974
sI105212
(dp4975
sI105213
(dp4976
sI105214
(dp4977
sI105215
(dp4978
sI105216
(dp4979
sI105217
(dp4980
sI105218
(dp4981
sI105219
(dp4982
sI105220
(dp4983
sI105221
(dp4984
sI105222
(dp4985
sI105223
(dp4986
sI105224
(dp4987
sI105225
(dp4988
sI105226
(dp4989
sI105227
(dp4990
sI105228
(dp4991
sI105229
(dp4992
sI105230
(dp4993
sI105231
(dp4994
sI105232
(dp4995
sI105233
(dp4996
sI105234
(dp4997
sI105235
(dp4998
sI105236
(dp4999
sI105237
(dp5000
sI105238
(dp5001
sI105239
(dp5002
sI105240
(dp5003
sI105241
(dp5004
sI105242
(dp5005
sI105243
(dp5006
sI105244
(dp5007
sI105245
(dp5008
sI105246
(dp5009
sI105247
(dp5010
sI105248
(dp5011
sI105249
(dp5012
sI105250
(dp5013
sI105251
(dp5014
sI105252
(dp5015
sI105253
(dp5016
sI105254
(dp5017
sI105256
(dp5018
sI105257
(dp5019
sI105258
(dp5020
sI105259
(dp5021
sI105260
(dp5022
sI105261
(dp5023
sI105262
(dp5024
sI105263
(dp5025
sI105264
(dp5026
sI105265
(dp5027
sI105266
(dp5028
sI105267
(dp5029
sI105268
(dp5030
sI105269
(dp5031
sI105270
(dp5032
sI105271
(dp5033
sI105272
(dp5034
sI105273
(dp5035
sI105274
(dp5036
sI105275
(dp5037
sI105276
(dp5038
sI105277
(dp5039
sI105278
(dp5040
sI105279
(dp5041
sI105280
(dp5042
sI105281
(dp5043
sI105282
(dp5044
sI105283
(dp5045
sI105284
(dp5046
sI105285
(dp5047
sI105286
(dp5048
sI105287
(dp5049
sI105288
(dp5050
sI105289
(dp5051
sI105290
(dp5052
sI105291
(dp5053
sI105292
(dp5054
sI105293
(dp5055
sI105294
(dp5056
sI105295
(dp5057
sI105297
(dp5058
sI105298
(dp5059
sI105299
(dp5060
sI105301
(dp5061
sI105302
(dp5062
sI105303
(dp5063
sI105304
(dp5064
sI105305
(dp5065
sI105306
(dp5066
sI105307
(dp5067
sI105309
(dp5068
sI105310
(dp5069
sI105311
(dp5070
sI105312
(dp5071
sI105313
(dp5072
sI105314
(dp5073
sI105315
(dp5074
sI105316
(dp5075
sI105317
(dp5076
sI105318
(dp5077
sI105319
(dp5078
sI105320
(dp5079
sI105321
(dp5080
sI105322
(dp5081
sI105323
(dp5082
sI105324
(dp5083
sI105325
(dp5084
sI105326
(dp5085
sI105327
(dp5086
sI105328
(dp5087
sI105329
(dp5088
sI105330
(dp5089
sI105331
(dp5090
sI105332
(dp5091
sI105333
(dp5092
sI105334
(dp5093
sI105335
(dp5094
sI105336
(dp5095
sI105337
(dp5096
sI105338
(dp5097
sI105339
(dp5098
sI105340
(dp5099
sI105341
(dp5100
sI105342
(dp5101
sI105343
(dp5102
sI105344
(dp5103
sI105345
(dp5104
sI105346
(dp5105
sI105347
(dp5106
sI105348
(dp5107
sI105349
(dp5108
sI105350
(dp5109
sI105351
(dp5110
sI105353
(dp5111
sI105354
(dp5112
sI105355
(dp5113
sI105357
(dp5114
sI105358
(dp5115
sI105359
(dp5116
sI105360
(dp5117
sI105361
(dp5118
sI105364
(dp5119
sI105365
(dp5120
sI105366
(dp5121
sI105367
(dp5122
sI105368
(dp5123
sI105369
(dp5124
sI105370
(dp5125
sI105371
(dp5126
sI105372
(dp5127
sI105374
(dp5128
sI105375
(dp5129
sI105376
(dp5130
sI105377
(dp5131
sI105378
(dp5132
sI105379
(dp5133
sI105380
(dp5134
sI105381
(dp5135
sI105382
(dp5136
sI105383
(dp5137
sI105384
(dp5138
sI105385
(dp5139
sI105386
(dp5140
sI105387
(dp5141
sI105388
(dp5142
sI105389
(dp5143
sI105390
(dp5144
sI105391
(dp5145
sI105392
(dp5146
sI105393
(dp5147
sI105394
(dp5148
sI105395
(dp5149
sI105396
(dp5150
sI105397
(dp5151
sI105398
(dp5152
sI105399
(dp5153
sI105400
(dp5154
sI105401
(dp5155
sI105402
(dp5156
sI105403
(dp5157
sI105404
(dp5158
sI105407
(dp5159
sI105408
(dp5160
sI105409
(dp5161
sI105410
(dp5162
sI105411
(dp5163
sI105412
(dp5164
sI105414
(dp5165
sI105415
(dp5166
sI105416
(dp5167
sI105417
(dp5168
sI105418
(dp5169
sI105419
(dp5170
sI105420
(dp5171
sI105421
(dp5172
sI105423
(dp5173
sI105424
(dp5174
sI105425
(dp5175
sI105426
(dp5176
sI105427
(dp5177
sI105428
(dp5178
sI105429
(dp5179
sI105431
(dp5180
sI105432
(dp5181
sI105433
(dp5182
sI105434
(dp5183
sI105435
(dp5184
sI105436
(dp5185
sI105437
(dp5186
sI105438
(dp5187
sI105439
(dp5188
sI105440
(dp5189
sI105441
(dp5190
sI105442
(dp5191
sI105443
(dp5192
sI105444
(dp5193
sI105445
(dp5194
sI105447
(dp5195
sI105449
(dp5196
sI105450
(dp5197
sI105451
(dp5198
sI105452
(dp5199
sI105453
(dp5200
sI105454
(dp5201
sI105455
(dp5202
sI105456
(dp5203
sI105457
(dp5204
sI105458
(dp5205
sI105459
(dp5206
sI105460
(dp5207
sI105461
(dp5208
sI105462
(dp5209
sI105463
(dp5210
sI105464
(dp5211
sI105465
(dp5212
sI105466
(dp5213
sI105467
(dp5214
sI105468
(dp5215
sI105469
(dp5216
sI105470
(dp5217
sI105471
(dp5218
sI105472
(dp5219
sI105473
(dp5220
sI105474
(dp5221
sI105475
(dp5222
sI105476
(dp5223
sI105478
(dp5224
sI105479
(dp5225
sI105480
(dp5226
sI105481
(dp5227
sI105482
(dp5228
sI105483
(dp5229
sI105484
(dp5230
sI105485
(dp5231
sI105486
(dp5232
sI105487
(dp5233
sI105488
(dp5234
sI105489
(dp5235
sI105491
(dp5236
sI105492
(dp5237
sI105493
(dp5238
sI105494
(dp5239
sI105495
(dp5240
sI105496
(dp5241
sI105497
(dp5242
sI105498
(dp5243
sI105499
(dp5244
sI105500
(dp5245
sI105501
(dp5246
sI105502
(dp5247
sI105503
(dp5248
sI105504
(dp5249
sI105505
(dp5250
sI105506
(dp5251
sI105507
(dp5252
sI105508
(dp5253
sI105509
(dp5254
sI105510
(dp5255
sI105511
(dp5256
sI105512
(dp5257
sI105513
(dp5258
sI105514
(dp5259
sI105515
(dp5260
sI105516
(dp5261
sI105517
(dp5262
sI105518
(dp5263
sI105519
(dp5264
sI105520
(dp5265
sI105521
(dp5266
sI105522
(dp5267
sI105523
(dp5268
sI105524
(dp5269
sI105525
(dp5270
sI105526
(dp5271
sI105527
(dp5272
sI105528
(dp5273
sI105529
(dp5274
sI105530
(dp5275
sI105531
(dp5276
sI105532
(dp5277
sI105533
(dp5278
sI105534
(dp5279
sI105535
(dp5280
sI105536
(dp5281
sI105537
(dp5282
sI105538
(dp5283
sI105539
(dp5284
sI105540
(dp5285
sI105541
(dp5286
sI105542
(dp5287
sI105543
(dp5288
sI105544
(dp5289
sI105545
(dp5290
sI105546
(dp5291
sI105547
(dp5292
sI105548
(dp5293
sI105549
(dp5294
sI105550
(dp5295
sI105551
(dp5296
sI105552
(dp5297
sI105553
(dp5298
sI105554
(dp5299
sI105555
(dp5300
sI105556
(dp5301
sI105557
(dp5302
sI105558
(dp5303
sI105559
(dp5304
sI105560
(dp5305
sI105561
(dp5306
sI105563
(dp5307
sI105564
(dp5308
sI105565
(dp5309
sI105566
(dp5310
sI105567
(dp5311
sI105568
(dp5312
sI105569
(dp5313
sI105571
(dp5314
sI105573
(dp5315
sI105574
(dp5316
sI105575
(dp5317
sI105576
(dp5318
sI105577
(dp5319
sI105578
(dp5320
sI105580
(dp5321
sI105581
(dp5322
sI105582
(dp5323
sI105583
(dp5324
sI105584
(dp5325
sI105585
(dp5326
sI105586
(dp5327
sI105587
(dp5328
sI105588
(dp5329
sI105589
(dp5330
sI105590
(dp5331
sI105591
(dp5332
sI105592
(dp5333
sI105593
(dp5334
sI105594
(dp5335
sI105595
(dp5336
sI105596
(dp5337
sI105597
(dp5338
sI105598
(dp5339
sI105599
(dp5340
sI105600
(dp5341
sI105601
(dp5342
sI105602
(dp5343
sI105603
(dp5344
sI105604
(dp5345
sI105605
(dp5346
sI105606
(dp5347
sI105607
(dp5348
sI105608
(dp5349
sI105609
(dp5350
sI105610
(dp5351
sI105611
(dp5352
sI105612
(dp5353
sI105613
(dp5354
sI105614
(dp5355
sI105615
(dp5356
sI105616
(dp5357
sI105617
(dp5358
sI105618
(dp5359
sI105619
(dp5360
sI105620
(dp5361
sI105621
(dp5362
sI105622
(dp5363
sI105623
(dp5364
sI105624
(dp5365
sI105625
(dp5366
sI105626
(dp5367
sI105627
(dp5368
sI105628
(dp5369
sI105629
(dp5370
sI105630
(dp5371
sI105631
(dp5372
sI105632
(dp5373
sI105633
(dp5374
sI105634
(dp5375
sI105635
(dp5376
sI105636
(dp5377
sI105637
(dp5378
sI105638
(dp5379
sI105639
(dp5380
sI105640
(dp5381
sI105641
(dp5382
sI105642
(dp5383
sI105643
(dp5384
sI105644
(dp5385
sI105645
(dp5386
sI105646
(dp5387
sI105647
(dp5388
sI105648
(dp5389
sI105649
(dp5390
sI105650
(dp5391
sI105651
(dp5392
sI105652
(dp5393
sI105653
(dp5394
sI105654
(dp5395
sI105655
(dp5396
sI105656
(dp5397
sI105657
(dp5398
sI105658
(dp5399
sI105659
(dp5400
sI105660
(dp5401
sI105661
(dp5402
sI105662
(dp5403
sI105663
(dp5404
sI105664
(dp5405
sI105665
(dp5406
sI105666
(dp5407
sI105667
(dp5408
sI105668
(dp5409
sI105669
(dp5410
sI105670
(dp5411
sI105671
(dp5412
sI105672
(dp5413
sI105673
(dp5414
sI105674
(dp5415
sI105675
(dp5416
sI105676
(dp5417
sI105677
(dp5418
sI105678
(dp5419
sI105679
(dp5420
sI105680
(dp5421
sI105681
(dp5422
sI105682
(dp5423
sI105683
(dp5424
sI105684
(dp5425
sI105685
(dp5426
sI105686
(dp5427
sI105687
(dp5428
sI105688
(dp5429
sI105689
(dp5430
sI105690
(dp5431
sI105691
(dp5432
sI105692
(dp5433
sI105693
(dp5434
sI105694
(dp5435
sI105695
(dp5436
sI105696
(dp5437
sI105697
(dp5438
sI105698
(dp5439
sI105699
(dp5440
sI105700
(dp5441
sI105701
(dp5442
sI105702
(dp5443
sI105703
(dp5444
sI105704
(dp5445
sI105705
(dp5446
sI105706
(dp5447
sI105707
(dp5448
sI105708
(dp5449
sI105709
(dp5450
sI105710
(dp5451
sI105711
(dp5452
sI105712
(dp5453
sI105713
(dp5454
sI105714
(dp5455
sI105715
(dp5456
sI105716
(dp5457
sI105717
(dp5458
sI105718
(dp5459
sI105719
(dp5460
sI105720
(dp5461
sI105721
(dp5462
sI105722
(dp5463
sI105723
(dp5464
sI105724
(dp5465
sI105725
(dp5466
sI105726
(dp5467
sI105727
(dp5468
sI105728
(dp5469
sI105729
(dp5470
sI105730
(dp5471
sI105731
(dp5472
sI105732
(dp5473
sI105734
(dp5474
sI105736
(dp5475
sI105737
(dp5476
sI105738
(dp5477
sI105739
(dp5478
sI105740
(dp5479
sI105742
(dp5480
sI105743
(dp5481
sI105744
(dp5482
sI105745
(dp5483
sI105746
(dp5484
sI105747
(dp5485
sI105748
(dp5486
sI105750
(dp5487
sI105751
(dp5488
sI105752
(dp5489
sI105753
(dp5490
sI105754
(dp5491
sI105755
(dp5492
sI105756
(dp5493
sI105757
(dp5494
sI105758
(dp5495
sI105759
(dp5496
sI105760
(dp5497
sI105761
(dp5498
sI105762
(dp5499
sI105763
(dp5500
sI105764
(dp5501
sI105765
(dp5502
sI105766
(dp5503
sI105767
(dp5504
sI105768
(dp5505
sI105769
(dp5506
sI105770
(dp5507
sI105771
(dp5508
sI105772
(dp5509
sI105773
(dp5510
sI105775
(dp5511
sI105776
(dp5512
sI105777
(dp5513
sI105778
(dp5514
sI105779
(dp5515
sI105780
(dp5516
sI105781
(dp5517
sI105782
(dp5518
sI105783
(dp5519
sI105784
(dp5520
sI105785
(dp5521
sI105786
(dp5522
sI105787
(dp5523
sI105788
(dp5524
sI105789
(dp5525
sI105790
(dp5526
sI105791
(dp5527
sI105792
(dp5528
sI105793
(dp5529
sI105794
(dp5530
sI105795
(dp5531
sI105796
(dp5532
sI105797
(dp5533
sI105798
(dp5534
sI105799
(dp5535
sI105800
(dp5536
sI105801
(dp5537
sI105802
(dp5538
sI105803
(dp5539
sI105805
(dp5540
sI105806
(dp5541
sI105808
(dp5542
sI105809
(dp5543
sI105810
(dp5544
sI105811
(dp5545
sI105812
(dp5546
sI105813
(dp5547
sI105814
(dp5548
sI105815
(dp5549
sI105816
(dp5550
sI105817
(dp5551
sI105818
(dp5552
sI105819
(dp5553
sI105820
(dp5554
sI105821
(dp5555
sI105822
(dp5556
sI105823
(dp5557
sI105824
(dp5558
sI105825
(dp5559
sI105826
(dp5560
sI105827
(dp5561
sI105828
(dp5562
sI105829
(dp5563
sI105830
(dp5564
sI105831
(dp5565
sI105833
(dp5566
sI105834
(dp5567
sI105835
(dp5568
sI105836
(dp5569
sI105837
(dp5570
sI105838
(dp5571
sI105839
(dp5572
sI105840
(dp5573
sI105843
(dp5574
sI105854
(dp5575
sI105856
(dp5576
sI105860
(dp5577
sI105863
(dp5578
sI105864
(dp5579
sI105865
(dp5580
sI105866
(dp5581
sI105867
(dp5582
sI105868
(dp5583
sI105869
(dp5584
sI105870
(dp5585
sI105871
(dp5586
sI105872
(dp5587
sI105873
(dp5588
sI105874
(dp5589
sI105875
(dp5590
sI105876
(dp5591
sI105877
(dp5592
sI105879
(dp5593
sI105880
(dp5594
sI105881
(dp5595
sI105882
(dp5596
sI105883
(dp5597
sI105884
(dp5598
sI105885
(dp5599
sI105886
(dp5600
sI105887
(dp5601
sI105889
(dp5602
sI105890
(dp5603
sI105891
(dp5604
sI105892
(dp5605
sI105893
(dp5606
sI105894
(dp5607
sI105895
(dp5608
sI105896
(dp5609
sI105897
(dp5610
sI105901
(dp5611
sI105902
(dp5612
sI105903
(dp5613
sI105904
(dp5614
sI105905
(dp5615
sI105906
(dp5616
sI105907
(dp5617
sI105908
(dp5618
sI105909
(dp5619
sI105911
(dp5620
sI105912
(dp5621
sI105913
(dp5622
sI105914
(dp5623
sI105915
(dp5624
sI105916
(dp5625
sI105918
(dp5626
sI105919
(dp5627
sI105920
(dp5628
sI105921
(dp5629
sI105922
(dp5630
sI105923
(dp5631
sI105924
(dp5632
sI105925
(dp5633
sI105926
(dp5634
sI105927
(dp5635
sI105928
(dp5636
sI105929
(dp5637
sI105930
(dp5638
sI105931
(dp5639
sI105932
(dp5640
sI105933
(dp5641
sI105934
(dp5642
sI105935
(dp5643
sI105936
(dp5644
sI105937
(dp5645
sI105938
(dp5646
sI105939
(dp5647
sI105941
(dp5648
sI105942
(dp5649
sI105943
(dp5650
sI105944
(dp5651
sI105945
(dp5652
sI105946
(dp5653
sI105947
(dp5654
sI105948
(dp5655
sI105949
(dp5656
sI105950
(dp5657
sI105951
(dp5658
sI105952
(dp5659
sI105953
(dp5660
sI105954
(dp5661
sI105955
(dp5662
sI105956
(dp5663
sI105957
(dp5664
sI105958
(dp5665
sI105959
(dp5666
sI105960
(dp5667
sI105961
(dp5668
sI105962
(dp5669
sI105963
(dp5670
sI105964
(dp5671
sI105965
(dp5672
sI105966
(dp5673
sI105967
(dp5674
sI105968
(dp5675
sI105969
(dp5676
sI105970
(dp5677
sI105971
(dp5678
sI105972
(dp5679
sI105973
(dp5680
sI105974
(dp5681
sI105975
(dp5682
sI105976
(dp5683
sI105977
(dp5684
sI105978
(dp5685
sI105979
(dp5686
sI105980
(dp5687
sI105981
(dp5688
sI105982
(dp5689
sI105983
(dp5690
sI105984
(dp5691
sI105985
(dp5692
sI105986
(dp5693
sI105987
(dp5694
sI105988
(dp5695
sI105989
(dp5696
sI105990
(dp5697
sI105991
(dp5698
sI105992
(dp5699
sI105993
(dp5700
sI105994
(dp5701
sI105995
(dp5702
sI105996
(dp5703
sI105997
(dp5704
sI105998
(dp5705
sI105999
(dp5706
sI106000
(dp5707
sI106001
(dp5708
sI106002
(dp5709
sI106004
(dp5710
sI106005
(dp5711
sI106006
(dp5712
sI106007
(dp5713
sI106008
(dp5714
sI106010
(dp5715
sI106011
(dp5716
sI106012
(dp5717
sI106013
(dp5718
sI106015
(dp5719
sI106016
(dp5720
sI106017
(dp5721
sI106018
(dp5722
sI106019
(dp5723
sI106020
(dp5724
sI106021
(dp5725
sI106022
(dp5726
sI106023
(dp5727
sI106024
(dp5728
sI106025
(dp5729
sI106026
(dp5730
sI106027
(dp5731
sI106028
(dp5732
sI106029
(dp5733
sI106030
(dp5734
sI106031
(dp5735
sI106032
(dp5736
sI106033
(dp5737
sI106034
(dp5738
sI106035
(dp5739
sI106036
(dp5740
sI106037
(dp5741
sI106038
(dp5742
sI106039
(dp5743
sI106040
(dp5744
sI106041
(dp5745
sI106042
(dp5746
sI106043
(dp5747
sI106044
(dp5748
sI106045
(dp5749
sI106046
(dp5750
sI106049
(dp5751
sI106050
(dp5752
sI106051
(dp5753
sI106052
(dp5754
sI106054
(dp5755
sI106055
(dp5756
sI106099
(dp5757
sI106100
(dp5758
sI106101
(dp5759
sI106102
(dp5760
sI106103
(dp5761
sI106104
(dp5762
sI106105
(dp5763
sI106106
(dp5764
sI106107
(dp5765
sI106108
(dp5766
sI106109
(dp5767
sI106110
(dp5768
sI106111
(dp5769
sI106112
(dp5770
sI106114
(dp5771
sI106115
(dp5772
sI106116
(dp5773
sI106117
(dp5774
sI106118
(dp5775
sI106119
(dp5776
sI106120
(dp5777
sI106121
(dp5778
sI106122
(dp5779
sI106123
(dp5780
sI106125
(dp5781
sI106126
(dp5782
sI106127
(dp5783
sI106128
(dp5784
sI106129
(dp5785
sI106130
(dp5786
sI106131
(dp5787
sI106132
(dp5788
sI106133
(dp5789
sI106183
(dp5790
sI106184
(dp5791
sI106185
(dp5792
sI106186
(dp5793
sI106187
(dp5794
sI106188
(dp5795
sI106189
(dp5796
sI106190
(dp5797
sI106191
(dp5798
sI106192
(dp5799
sI106193
(dp5800
sI106194
(dp5801
sI106195
(dp5802
sI106196
(dp5803
sI106197
(dp5804
sI106198
(dp5805
sI106199
(dp5806
sI106200
(dp5807
sI106201
(dp5808
sI106202
(dp5809
sI106203
(dp5810
sI106204
(dp5811
sI106205
(dp5812
sI106206
(dp5813
sI106207
(dp5814
sI106208
(dp5815
sI106209
(dp5816
sI106210
(dp5817
sI106211
(dp5818
sI106212
(dp5819
sI106213
(dp5820
sI106214
(dp5821
sI106215
(dp5822
sI106216
(dp5823
sI106217
(dp5824
sI106218
(dp5825
sI106219
(dp5826
sI106220
(dp5827
sI106221
(dp5828
sI106222
(dp5829
sI106223
(dp5830
sI106224
(dp5831
sI106225
(dp5832
sI106226
(dp5833
sI106227
(dp5834
sI106228
(dp5835
sI106229
(dp5836
sI106230
(dp5837
sI106231
(dp5838
sI106232
(dp5839
sI106233
(dp5840
sI106234
(dp5841
sI106235
(dp5842
sI106236
(dp5843
sI106237
(dp5844
sI106238
(dp5845
sI106239
(dp5846
sI106240
(dp5847
sI106241
(dp5848
sI106242
(dp5849
sI106243
(dp5850
sI106244
(dp5851
sI106245
(dp5852
sI106246
(dp5853
sI106247
(dp5854
sI106248
(dp5855
sI106249
(dp5856
sI106250
(dp5857
sI106251
(dp5858
sI106252
(dp5859
sI106253
(dp5860
sI106254
(dp5861
sI106255
(dp5862
sI106256
(dp5863
sI106257
(dp5864
sI106258
(dp5865
sI106259
(dp5866
sI106260
(dp5867
sI106261
(dp5868
sI106262
(dp5869
sI106263
(dp5870
sI106264
(dp5871
sI106265
(dp5872
sI106266
(dp5873
sI106267
(dp5874
sI106268
(dp5875
sI106269
(dp5876
sI106270
(dp5877
sI106271
(dp5878
sI106272
(dp5879
sI106273
(dp5880
sI106274
(dp5881
sI106275
(dp5882
sI106277
(dp5883
sI106278
(dp5884
sI106279
(dp5885
sI106280
(dp5886
sI106281
(dp5887
sI106282
(dp5888
sI106283
(dp5889
sI106284
(dp5890
sI106285
(dp5891
sI106286
(dp5892
sI106287
(dp5893
sI106288
(dp5894
sI106289
(dp5895
sI106290
(dp5896
sI106291
(dp5897
sI106292
(dp5898
sI106293
(dp5899
sI106294
(dp5900
sI106295
(dp5901
sI106296
(dp5902
sI106297
(dp5903
sI106298
(dp5904
sI106299
(dp5905
sI106300
(dp5906
sI106301
(dp5907
sI106302
(dp5908
sI106303
(dp5909
sI106304
(dp5910
sI106305
(dp5911
sI106306
(dp5912
sI106307
(dp5913
sI106308
(dp5914
sI106309
(dp5915
sI106310
(dp5916
sI106311
(dp5917
sI106312
(dp5918
sI106313
(dp5919
sI106314
(dp5920
sI106315
(dp5921
sI106316
(dp5922
sI106317
(dp5923
sI106318
(dp5924
sI106319
(dp5925
sI106320
(dp5926
sI106321
(dp5927
sI106322
(dp5928
sI106323
(dp5929
sI106325
(dp5930
sI106326
(dp5931
sI106327
(dp5932
sI106328
(dp5933
sI106329
(dp5934
sI106330
(dp5935
sI106331
(dp5936
sI106332
(dp5937
sI106333
(dp5938
sI106334
(dp5939
sI106335
(dp5940
sI106337
(dp5941
sI106338
(dp5942
sI106339
(dp5943
sI106340
(dp5944
sI106341
(dp5945
sI106342
(dp5946
sI106343
(dp5947
sI106345
(dp5948
sI106346
(dp5949
sI106347
(dp5950
sI106348
(dp5951
sI106349
(dp5952
sI106351
(dp5953
sI106352
(dp5954
sI106353
(dp5955
sI106354
(dp5956
sI106355
(dp5957
sI106356
(dp5958
sI106357
(dp5959
sI106358
(dp5960
sI106359
(dp5961
sI106360
(dp5962
sI106361
(dp5963
sI106362
(dp5964
sI106363
(dp5965
sI106365
(dp5966
sI106366
(dp5967
sI106367
(dp5968
sI106368
(dp5969
sI106369
(dp5970
sI106370
(dp5971
sI106371
(dp5972
sI106372
(dp5973
sI106373
(dp5974
sI106374
(dp5975
sI106375
(dp5976
sI106376
(dp5977
sI106377
(dp5978
sI106378
(dp5979
sI106379
(dp5980
sI106380
(dp5981
sI106381
(dp5982
sI106382
(dp5983
sI106383
(dp5984
sI106384
(dp5985
sI106385
(dp5986
sI106386
(dp5987
sI106387
(dp5988
sI106388
(dp5989
sI106389
(dp5990
sI106390
(dp5991
sI106391
(dp5992
sI106392
(dp5993
sI106393
(dp5994
sI106394
(dp5995
sI106395
(dp5996
sI106396
(dp5997
sI106397
(dp5998
sI106398
(dp5999
sI106399
(dp6000
sI106400
(dp6001
sI106401
(dp6002
sI106402
(dp6003
sI106403
(dp6004
sI106404
(dp6005
sI106405
(dp6006
sI106406
(dp6007
sI106407
(dp6008
sI106408
(dp6009
sI106409
(dp6010
sI106410
(dp6011
sI106411
(dp6012
sI106412
(dp6013
sI106413
(dp6014
sI106414
(dp6015
sI106415
(dp6016
sI106416
(dp6017
sI106417
(dp6018
sI106418
(dp6019
sI106419
(dp6020
sI106420
(dp6021
sI106422
(dp6022
sI106423
(dp6023
sI106424
(dp6024
sI106425
(dp6025
sI106426
(dp6026
sI106427
(dp6027
sI106428
(dp6028
sI106429
(dp6029
sI106430
(dp6030
sI106431
(dp6031
sI106432
(dp6032
sI106433
(dp6033
sI106434
(dp6034
sI106435
(dp6035
sI106436
(dp6036
sI106437
(dp6037
sI106438
(dp6038
sI106439
(dp6039
sI106440
(dp6040
sI106441
(dp6041
sI106442
(dp6042
sI106443
(dp6043
sI106444
(dp6044
sI106445
(dp6045
sI106446
(dp6046
sI106447
(dp6047
sI106448
(dp6048
sI106449
(dp6049
sI106450
(dp6050
sI106451
(dp6051
sI106452
(dp6052
sI106453
(dp6053
sI106454
(dp6054
sI106455
(dp6055
sI106456
(dp6056
sI106457
(dp6057
sI106458
(dp6058
sI106459
(dp6059
sI106460
(dp6060
sI106461
(dp6061
sI106462
(dp6062
sI106463
(dp6063
sI106464
(dp6064
sI106465
(dp6065
sI106466
(dp6066
sI106467
(dp6067
sI106468
(dp6068
sI106469
(dp6069
sI106470
(dp6070
sI106473
(dp6071
sI106474
(dp6072
sI106475
(dp6073
sI106476
(dp6074
sI106477
(dp6075
sI106478
(dp6076
sI106479
(dp6077
sI106480
(dp6078
sI106481
(dp6079
sI106482
(dp6080
sI106483
(dp6081
sI106484
(dp6082
sI106485
(dp6083
sI106486
(dp6084
sI106487
(dp6085
sI106488
(dp6086
sI106489
(dp6087
sI106490
(dp6088
sI106491
(dp6089
sI106492
(dp6090
sI106493
(dp6091
sI106494
(dp6092
sI106495
(dp6093
sI106496
(dp6094
sI106497
(dp6095
sI106498
(dp6096
sI106499
(dp6097
sI106500
(dp6098
sI106501
(dp6099
sI106502
(dp6100
sI106503
(dp6101
sI106504
(dp6102
sI106505
(dp6103
sI106506
(dp6104
sI106507
(dp6105
sI106509
(dp6106
sI106510
(dp6107
sI106511
(dp6108
sI106512
(dp6109
sI106513
(dp6110
sI106514
(dp6111
sI106515
(dp6112
sI106516
(dp6113
sI106517
(dp6114
sI106518
(dp6115
sI106519
(dp6116
sI106520
(dp6117
sI106521
(dp6118
sI106522
(dp6119
sI106523
(dp6120
sI106524
(dp6121
sI106525
(dp6122
sI106526
(dp6123
sI106527
(dp6124
sI106528
(dp6125
sI106529
(dp6126
sI106530
(dp6127
sI106531
(dp6128
sI106532
(dp6129
sI106533
(dp6130
sI106534
(dp6131
sI106535
(dp6132
sI106536
(dp6133
sI106538
(dp6134
sI106539
(dp6135
sI106540
(dp6136
sI106541
(dp6137
sI106542
(dp6138
sI106543
(dp6139
sI106544
(dp6140
sI106545
(dp6141
sI106546
(dp6142
sI106547
(dp6143
sI106548
(dp6144
sI106549
(dp6145
sI106550
(dp6146
sI106551
(dp6147
sI106552
(dp6148
sI106553
(dp6149
sI106554
(dp6150
sI106555
(dp6151
sI106556
(dp6152
sI106557
(dp6153
sI106558
(dp6154
sI106559
(dp6155
sI106560
(dp6156
sI106561
(dp6157
sI106562
(dp6158
sI106563
(dp6159
sI106564
(dp6160
sI106565
(dp6161
sI106566
(dp6162
sI106567
(dp6163
sI106568
(dp6164
sI106569
(dp6165
sI106570
(dp6166
sI106571
(dp6167
sI106572
(dp6168
sI106573
(dp6169
sI106574
(dp6170
sI106575
(dp6171
sI106576
(dp6172
sI106577
(dp6173
sI106580
(dp6174
sI106581
(dp6175
sI106582
(dp6176
sI106583
(dp6177
sI106584
(dp6178
sI106585
(dp6179
sI106586
(dp6180
sI106587
(dp6181
sI106588
(dp6182
sI106589
(dp6183
sI106590
(dp6184
sI106591
(dp6185
sI106592
(dp6186
sI106593
(dp6187
sI106594
(dp6188
sI106595
(dp6189
sI106596
(dp6190
sI106597
(dp6191
sI106598
(dp6192
sI106599
(dp6193
sI106600
(dp6194
sI106601
(dp6195
sI106602
(dp6196
sI106603
(dp6197
sI106604
(dp6198
sI106605
(dp6199
sI106606
(dp6200
sI106607
(dp6201
sI106608
(dp6202
sI106609
(dp6203
sI106610
(dp6204
sI106611
(dp6205
sI106612
(dp6206
sI106613
(dp6207
sI106614
(dp6208
sI106615
(dp6209
sI106616
(dp6210
sI106617
(dp6211
sI106618
(dp6212
sI106619
(dp6213
sI106620
(dp6214
sI106621
(dp6215
sI106622
(dp6216
sI106623
(dp6217
sI106624
(dp6218
sI106625
(dp6219
sI106626
(dp6220
sI106627
(dp6221
sI106628
(dp6222
sI106629
(dp6223
sI106630
(dp6224
sI106631
(dp6225
sI106632
(dp6226
sI106634
(dp6227
sI106635
(dp6228
sI106636
(dp6229
sI106637
(dp6230
sI106638
(dp6231
sI106639
(dp6232
sI106640
(dp6233
sI106641
(dp6234
sI106642
(dp6235
sI106643
(dp6236
sI106644
(dp6237
sI106645
(dp6238
sI106646
(dp6239
sI106647
(dp6240
sI106648
(dp6241
sI106649
(dp6242
sI106650
(dp6243
sI106652
(dp6244
sI106653
(dp6245
sI106654
(dp6246
sI106655
(dp6247
sI106656
(dp6248
sI106657
(dp6249
sI106658
(dp6250
sI106659
(dp6251
sI106660
(dp6252
sI106661
(dp6253
sI106662
(dp6254
sI106663
(dp6255
sI106664
(dp6256
sI106665
(dp6257
sI106666
(dp6258
sI106667
(dp6259
sI106668
(dp6260
sI106669
(dp6261
sI106670
(dp6262
sI106671
(dp6263
sI106672
(dp6264
sI106673
(dp6265
sI106674
(dp6266
sI106675
(dp6267
sI106676
(dp6268
sI106677
(dp6269
sI106678
(dp6270
sI106679
(dp6271
sI106680
(dp6272
sI106681
(dp6273
sI106682
(dp6274
sI106683
(dp6275
sI106684
(dp6276
sI106685
(dp6277
sI106686
(dp6278
sI106687
(dp6279
sI106689
(dp6280
sI106690
(dp6281
sI106692
(dp6282
sI106693
(dp6283
sI106694
(dp6284
sI106695
(dp6285
sI106696
(dp6286
sI106698
(dp6287
sI106699
(dp6288
sI106700
(dp6289
sI106701
(dp6290
sI106702
(dp6291
sI106703
(dp6292
sI106704
(dp6293
sI106705
(dp6294
sI106706
(dp6295
sI106707
(dp6296
sI106708
(dp6297
sI106709
(dp6298
sI106710
(dp6299
sI106711
(dp6300
sI106712
(dp6301
sI106713
(dp6302
sI106714
(dp6303
sI106715
(dp6304
sI106716
(dp6305
sI106717
(dp6306
sI106718
(dp6307
sI106719
(dp6308
sI106720
(dp6309
sI106721
(dp6310
sI106722
(dp6311
sI106723
(dp6312
sI106724
(dp6313
sI106725
(dp6314
sI106727
(dp6315
sI106728
(dp6316
sI106729
(dp6317
sI106730
(dp6318
sI106731
(dp6319
sI106732
(dp6320
sI106733
(dp6321
sI106734
(dp6322
sI106735
(dp6323
sI106736
(dp6324
sI106737
(dp6325
sI106738
(dp6326
sI106740
(dp6327
sI106741
(dp6328
sI106742
(dp6329
sI106743
(dp6330
sI106744
(dp6331
sI106745
(dp6332
sI106746
(dp6333
sI106747
(dp6334
sI106748
(dp6335
sI106749
(dp6336
sI106750
(dp6337
sI106751
(dp6338
sI106752
(dp6339
sI106754
(dp6340
sI106755
(dp6341
sI106756
(dp6342
sI106757
(dp6343
sI106758
(dp6344
sI106759
(dp6345
sI106760
(dp6346
sI106761
(dp6347
sI106764
(dp6348
sI106765
(dp6349
sI106766
(dp6350
sI106768
(dp6351
sI106770
(dp6352
sI106771
(dp6353
sI106772
(dp6354
sI106773
(dp6355
sI106774
(dp6356
sI106775
(dp6357
sI106776
(dp6358
sI106777
(dp6359
sI106778
(dp6360
sI106779
(dp6361
sI106780
(dp6362
sI106781
(dp6363
sI106782
(dp6364
sI106783
(dp6365
sI106785
(dp6366
sI106786
(dp6367
sI106788
(dp6368
sI106789
(dp6369
sI106790
(dp6370
sI106791
(dp6371
sI106792
(dp6372
sI106793
(dp6373
sI106794
(dp6374
sI106795
(dp6375
sI106796
(dp6376
sI106797
(dp6377
sI106798
(dp6378
sI106799
(dp6379
sI106800
(dp6380
sI106801
(dp6381
sI106802
(dp6382
sI106803
(dp6383
sI106804
(dp6384
sI106805
(dp6385
sI106806
(dp6386
sI106807
(dp6387
sI106808
(dp6388
sI106809
(dp6389
sI106810
(dp6390
sI106811
(dp6391
sI106812
(dp6392
sI106813
(dp6393
sI106814
(dp6394
sI106815
(dp6395
sI106816
(dp6396
sI106817
(dp6397
sI106818
(dp6398
sI106819
(dp6399
sI106820
(dp6400
sI106821
(dp6401
sI106822
(dp6402
sI106823
(dp6403
sI106824
(dp6404
sI106825
(dp6405
sI106826
(dp6406
sI106827
(dp6407
sI106828
(dp6408
sI106829
(dp6409
sI106830
(dp6410
sI106831
(dp6411
sI106832
(dp6412
sI106833
(dp6413
sI106834
(dp6414
sI106835
(dp6415
sI106836
(dp6416
sI106837
(dp6417
sI106838
(dp6418
sI106839
(dp6419
sI106840
(dp6420
sI106841
(dp6421
sI106842
(dp6422
sI106843
(dp6423
sI106844
(dp6424
sI106845
(dp6425
sI106846
(dp6426
sI106847
(dp6427
sI106848
(dp6428
sI106849
(dp6429
sI106850
(dp6430
sI106851
(dp6431
sI106852
(dp6432
sI106853
(dp6433
sI106854
(dp6434
sI106855
(dp6435
sI106856
(dp6436
sI106857
(dp6437
sI106858
(dp6438
sI106859
(dp6439
sI106860
(dp6440
sI106861
(dp6441
sI106862
(dp6442
sI106863
(dp6443
sI106864
(dp6444
sI106865
(dp6445
sI106866
(dp6446
sI106867
(dp6447
sI106868
(dp6448
sI106869
(dp6449
sI106870
(dp6450
sI106872
(dp6451
sI106873
(dp6452
sI106874
(dp6453
sI106875
(dp6454
sI106876
(dp6455
sI106877
(dp6456
sI106878
(dp6457
sI106879
(dp6458
sI106880
(dp6459
sI106881
(dp6460
sI106882
(dp6461
sI106883
(dp6462
sI106884
(dp6463
sI106885
(dp6464
sI106886
(dp6465
sI106887
(dp6466
sI106888
(dp6467
sI106889
(dp6468
sI106890
(dp6469
sI106891
(dp6470
sI106892
(dp6471
sI106893
(dp6472
sI106894
(dp6473
sI106895
(dp6474
sI106896
(dp6475
sI106897
(dp6476
sI106898
(dp6477
sI106899
(dp6478
sI106900
(dp6479
sI106901
(dp6480
sI106902
(dp6481
sI106903
(dp6482
sI106904
(dp6483
sI106905
(dp6484
sI106906
(dp6485
sI106907
(dp6486
sI106908
(dp6487
sI106909
(dp6488
sI106910
(dp6489
sI106911
(dp6490
sI106912
(dp6491
sI106913
(dp6492
sI106914
(dp6493
sI106915
(dp6494
sI106916
(dp6495
sI106917
(dp6496
sI106918
(dp6497
sI106919
(dp6498
sI106920
(dp6499
sI106921
(dp6500
sI106922
(dp6501
sI106923
(dp6502
sI106924
(dp6503
sI106925
(dp6504
sI106926
(dp6505
sI106927
(dp6506
sI106928
(dp6507
sI106929
(dp6508
sI106930
(dp6509
sI106931
(dp6510
sI106932
(dp6511
sI106933
(dp6512
sI106934
(dp6513
sI106935
(dp6514
sI106936
(dp6515
sI106937
(dp6516
sI106938
(dp6517
sI106939
(dp6518
sI106940
(dp6519
sI106941
(dp6520
sI106942
(dp6521
sI106943
(dp6522
sI106944
(dp6523
sI106945
(dp6524
sI106946
(dp6525
sI106947
(dp6526
sI106948
(dp6527
sI106949
(dp6528
sI106950
(dp6529
sI106951
(dp6530
sI106952
(dp6531
sI106953
(dp6532
sI106954
(dp6533
sI106955
(dp6534
sI106956
(dp6535
sI106957
(dp6536
sI106958
(dp6537
sI106959
(dp6538
sI106960
(dp6539
sI106961
(dp6540
sI106962
(dp6541
sI106963
(dp6542
sI106964
(dp6543
sI106965
(dp6544
sI106966
(dp6545
sI106967
(dp6546
sI106968
(dp6547
sI106969
(dp6548
sI106970
(dp6549
sI106971
(dp6550
sI106972
(dp6551
sI106973
(dp6552
sI106974
(dp6553
sI106975
(dp6554
sI106976
(dp6555
sI106977
(dp6556
sI106978
(dp6557
sI106979
(dp6558
sI106980
(dp6559
sI106981
(dp6560
sI106983
(dp6561
sI106985
(dp6562
sI106986
(dp6563
sI106987
(dp6564
sI106988
(dp6565
sI106989
(dp6566
sI106991
(dp6567
sI106992
(dp6568
sI106993
(dp6569
sI106994
(dp6570
sI106995
(dp6571
sI106997
(dp6572
sI106998
(dp6573
sI106999
(dp6574
sI107000
(dp6575
sI107001
(dp6576
sI107002
(dp6577
sI107003
(dp6578
sI107004
(dp6579
sI107005
(dp6580
sI107006
(dp6581
sI107007
(dp6582
sI107008
(dp6583
sI107009
(dp6584
sI107010
(dp6585
sI107011
(dp6586
sI107013
(dp6587
sI107014
(dp6588
sI107015
(dp6589
sI107016
(dp6590
sI107017
(dp6591
sI107018
(dp6592
sI107019
(dp6593
sI107020
(dp6594
sI107021
(dp6595
sI107022
(dp6596
sI107023
(dp6597
sI107024
(dp6598
sI107025
(dp6599
sI107026
(dp6600
sI107027
(dp6601
sI107028
(dp6602
sI107029
(dp6603
sI107030
(dp6604
sI107031
(dp6605
sI107032
(dp6606
sI107033
(dp6607
sI107034
(dp6608
sI107035
(dp6609
sI107036
(dp6610
sI107037
(dp6611
sI107038
(dp6612
sI107039
(dp6613
sI107040
(dp6614
sI107041
(dp6615
sI107042
(dp6616
sI107043
(dp6617
sI107044
(dp6618
sI107045
(dp6619
sI107046
(dp6620
sI107047
(dp6621
sI107048
(dp6622
sI107049
(dp6623
sI107050
(dp6624
sI107051
(dp6625
sI107052
(dp6626
sI107053
(dp6627
sI107054
(dp6628
sI107055
(dp6629
sI107056
(dp6630
sI107057
(dp6631
sI107058
(dp6632
sI107059
(dp6633
sI107060
(dp6634
sI107061
(dp6635
sI107062
(dp6636
sI107063
(dp6637
sI107064
(dp6638
sI107065
(dp6639
sI107066
(dp6640
sI107067
(dp6641
sI107068
(dp6642
sI107069
(dp6643
sI107070
(dp6644
sI107071
(dp6645
sI107072
(dp6646
sI107073
(dp6647
sI107074
(dp6648
sI107075
(dp6649
sI107076
(dp6650
sI107077
(dp6651
sI107078
(dp6652
sI107079
(dp6653
sI107080
(dp6654
sI107081
(dp6655
sI107082
(dp6656
sI107083
(dp6657
sI107084
(dp6658
sI107086
(dp6659
sI107088
(dp6660
sI107089
(dp6661
sI107090
(dp6662
sI107091
(dp6663
sI107092
(dp6664
sI107093
(dp6665
sI107094
(dp6666
sI107095
(dp6667
sI107096
(dp6668
sI107097
(dp6669
sI107098
(dp6670
sI107099
(dp6671
sI107100
(dp6672
sI107101
(dp6673
sI107102
(dp6674
sI107103
(dp6675
sI107104
(dp6676
sI107105
(dp6677
sI107106
(dp6678
sI107107
(dp6679
sI107108
(dp6680
sI107109
(dp6681
sI107110
(dp6682
sI107111
(dp6683
sI107112
(dp6684
sI107113
(dp6685
sI107114
(dp6686
sI107115
(dp6687
sI107116
(dp6688
sI107117
(dp6689
sI107118
(dp6690
sI107119
(dp6691
sI107120
(dp6692
sI107121
(dp6693
sI107122
(dp6694
sI107123
(dp6695
sI107124
(dp6696
sI107125
(dp6697
sI107126
(dp6698
sI107127
(dp6699
sI107128
(dp6700
sI107129
(dp6701
sI107130
(dp6702
sI107131
(dp6703
sI107132
(dp6704
sI107133
(dp6705
sI107134
(dp6706
sI107136
(dp6707
sI107137
(dp6708
sI107138
(dp6709
sI107139
(dp6710
sI107140
(dp6711
sI107141
(dp6712
sI107142
(dp6713
sI107143
(dp6714
sI107144
(dp6715
sI107145
(dp6716
sI107146
(dp6717
sI107147
(dp6718
sI107148
(dp6719
sI107149
(dp6720
sI107150
(dp6721
sI107151
(dp6722
sI107152
(dp6723
sI107153
(dp6724
sI107154
(dp6725
sI107155
(dp6726
sI107156
(dp6727
sI107157
(dp6728
sI107158
(dp6729
sI107159
(dp6730
sI107160
(dp6731
sI107161
(dp6732
sI107162
(dp6733
sI107163
(dp6734
sI107164
(dp6735
sI107165
(dp6736
sI107166
(dp6737
sI107167
(dp6738
sI107168
(dp6739
sI107169
(dp6740
sI107170
(dp6741
sI107171
(dp6742
sI107172
(dp6743
sI107173
(dp6744
sI107174
(dp6745
sI107175
(dp6746
sI107176
(dp6747
sI107177
(dp6748
sI107178
(dp6749
sI107179
(dp6750
sI107180
(dp6751
sI107181
(dp6752
sI107182
(dp6753
sI107183
(dp6754
sI107184
(dp6755
sI107185
(dp6756
sI107186
(dp6757
sI107187
(dp6758
sI107188
(dp6759
sI107189
(dp6760
sI107190
(dp6761
sI107191
(dp6762
sI107192
(dp6763
sI107193
(dp6764
sI107194
(dp6765
sI107195
(dp6766
sI107196
(dp6767
sI107197
(dp6768
sI107198
(dp6769
sI107199
(dp6770
sI107200
(dp6771
sI107201
(dp6772
sI107202
(dp6773
sI107203
(dp6774
sI107204
(dp6775
sI107205
(dp6776
sI107206
(dp6777
sI107207
(dp6778
sI107208
(dp6779
sI107209
(dp6780
sI107210
(dp6781
sI107214
(dp6782
sI107215
(dp6783
sI107216
(dp6784
sI107217
(dp6785
sI107218
(dp6786
sI107219
(dp6787
sI107220
(dp6788
sI107221
(dp6789
sI107222
(dp6790
sI107223
(dp6791
sI107224
(dp6792
sI107226
(dp6793
sI107227
(dp6794
sI107228
(dp6795
sI107229
(dp6796
sI107230
(dp6797
sI107231
(dp6798
sI107233
(dp6799
sI107234
(dp6800
sI107235
(dp6801
sI107236
(dp6802
sI107237
(dp6803
sI107238
(dp6804
sI107239
(dp6805
sI107240
(dp6806
sI107241
(dp6807
sI107242
(dp6808
sI107243
(dp6809
sI107244
(dp6810
sI107245
(dp6811
sI107246
(dp6812
sI107247
(dp6813
sI107248
(dp6814
sI107249
(dp6815
sI107250
(dp6816
sI107251
(dp6817
sI107252
(dp6818
sI107253
(dp6819
sI107254
(dp6820
sI107255
(dp6821
sI107256
(dp6822
sI107257
(dp6823
sI107258
(dp6824
sI107259
(dp6825
sI107260
(dp6826
sI107261
(dp6827
sI107262
(dp6828
sI107263
(dp6829
sI107264
(dp6830
sI107265
(dp6831
sI107266
(dp6832
sI107267
(dp6833
sI107268
(dp6834
sI107269
(dp6835
sI107270
(dp6836
sI107271
(dp6837
sI107272
(dp6838
sI107273
(dp6839
sI107274
(dp6840
sI107275
(dp6841
sI107276
(dp6842
sI107277
(dp6843
sI107278
(dp6844
sI107279
(dp6845
sI107280
(dp6846
sI107281
(dp6847
sI107282
(dp6848
sI107283
(dp6849
sI107284
(dp6850
sI107285
(dp6851
sI107286
(dp6852
sI107287
(dp6853
sI107288
(dp6854
sI107289
(dp6855
sI107290
(dp6856
sI107291
(dp6857
sI107292
(dp6858
sI107293
(dp6859
sI107294
(dp6860
sI107295
(dp6861
sI107296
(dp6862
sI107297
(dp6863
sI107298
(dp6864
sI107299
(dp6865
sI107300
(dp6866
sI107301
(dp6867
sI107302
(dp6868
sI107303
(dp6869
sI107304
(dp6870
sI107306
(dp6871
sI107307
(dp6872
sI107308
(dp6873
sI107309
(dp6874
sI107310
(dp6875
sI107311
(dp6876
sI107312
(dp6877
sI107313
(dp6878
sI107315
(dp6879
sI107316
(dp6880
sI107317
(dp6881
sI107318
(dp6882
sI107319
(dp6883
sI107320
(dp6884
sI107321
(dp6885
sI107322
(dp6886
sI107324
(dp6887
sI107325
(dp6888
sI107326
(dp6889
sI107329
(dp6890
sI107330
(dp6891
sI107331
(dp6892
sI107332
(dp6893
sI107333
(dp6894
sI107334
(dp6895
sI107335
(dp6896
sI107336
(dp6897
sI107337
(dp6898
sI107338
(dp6899
sI107339
(dp6900
sI107340
(dp6901
sI107341
(dp6902
sI107342
(dp6903
sI107343
(dp6904
sI107344
(dp6905
sI107345
(dp6906
sI107346
(dp6907
sI107347
(dp6908
sI107348
(dp6909
sI107349
(dp6910
sI107350
(dp6911
sI107352
(dp6912
sI107353
(dp6913
sI107354
(dp6914
sI107355
(dp6915
sI107356
(dp6916
sI107357
(dp6917
sI107358
(dp6918
sI107359
(dp6919
sI107360
(dp6920
sI107361
(dp6921
sI107362
(dp6922
sI107363
(dp6923
sI107364
(dp6924
sI107365
(dp6925
sI107366
(dp6926
sI107367
(dp6927
sI107368
(dp6928
sI107369
(dp6929
sI107370
(dp6930
sI107371
(dp6931
sI107372
(dp6932
sI107373
(dp6933
sI107374
(dp6934
sI107375
(dp6935
sI107376
(dp6936
sI107377
(dp6937
sI107378
(dp6938
sI107379
(dp6939
sI107380
(dp6940
sI107381
(dp6941
sI107382
(dp6942
sI107383
(dp6943
sI107384
(dp6944
sI107385
(dp6945
sI107386
(dp6946
sI107387
(dp6947
sI107388
(dp6948
sI107389
(dp6949
sI107390
(dp6950
sI107391
(dp6951
sI107392
(dp6952
sI107393
(dp6953
sI107394
(dp6954
sI107395
(dp6955
sI107396
(dp6956
sI107398
(dp6957
sI107399
(dp6958
sI107401
(dp6959
sI107402
(dp6960
sI107403
(dp6961
sI107404
(dp6962
sI107405
(dp6963
sI107406
(dp6964
sI107407
(dp6965
sI107408
(dp6966
sI107409
(dp6967
sI107410
(dp6968
sI107411
(dp6969
sI107412
(dp6970
sI107413
(dp6971
sI107414
(dp6972
sI107415
(dp6973
sI107416
(dp6974
sI107417
(dp6975
sI107418
(dp6976
sI107419
(dp6977
sI107420
(dp6978
sI107421
(dp6979
sI107422
(dp6980
sI107423
(dp6981
sI107424
(dp6982
sI107425
(dp6983
sI107426
(dp6984
sI107427
(dp6985
sI107428
(dp6986
sI107429
(dp6987
sI107430
(dp6988
sI107431
(dp6989
sI107432
(dp6990
sI107433
(dp6991
sI107434
(dp6992
sI107435
(dp6993
sI107436
(dp6994
sI107437
(dp6995
sI107438
(dp6996
sI107439
(dp6997
sI107440
(dp6998
sI107441
(dp6999
sI107442
(dp7000
sI107443
(dp7001
sI107444
(dp7002
sI107445
(dp7003
sI107446
(dp7004
sI107447
(dp7005
sI107448
(dp7006
sI107449
(dp7007
sI107450
(dp7008
sI107451
(dp7009
sI107452
(dp7010
sI107453
(dp7011
sI107454
(dp7012
sI107455
(dp7013
sI107456
(dp7014
sI107457
(dp7015
sI107458
(dp7016
sI107459
(dp7017
sI107460
(dp7018
sI107461
(dp7019
sI107463
(dp7020
sI107465
(dp7021
sI107466
(dp7022
sI107467
(dp7023
sI107468
(dp7024
sI107469
(dp7025
sI107471
(dp7026
sI107473
(dp7027
sI107474
(dp7028
sI107475
(dp7029
sI107476
(dp7030
sI107477
(dp7031
sI107478
(dp7032
sI107479
(dp7033
sI107480
(dp7034
sI107481
(dp7035
sI107482
(dp7036
sI107483
(dp7037
sI107484
(dp7038
sI107486
(dp7039
sI107487
(dp7040
sI107489
(dp7041
sI107490
(dp7042
sI107491
(dp7043
sI107492
(dp7044
sI107493
(dp7045
sI107494
(dp7046
sI107495
(dp7047
sI107496
(dp7048
sI107498
(dp7049
sI107499
(dp7050
sI107500
(dp7051
sI107501
(dp7052
sI107502
(dp7053
sI107503
(dp7054
sI107504
(dp7055
sI107505
(dp7056
sI107509
(dp7057
sI107510
(dp7058
sI107512
(dp7059
sI107513
(dp7060
sI107514
(dp7061
sI107515
(dp7062
sI107516
(dp7063
sI107517
(dp7064
sI107518
(dp7065
sI107519
(dp7066
sI107520
(dp7067
sI107521
(dp7068
sI107522
(dp7069
sI107523
(dp7070
sI107524
(dp7071
sI107525
(dp7072
sI107526
(dp7073
sI107527
(dp7074
sI107528
(dp7075
sI107529
(dp7076
sI107530
(dp7077
sI107531
(dp7078
sI107532
(dp7079
sI107533
(dp7080
sI107534
(dp7081
sI107535
(dp7082
sI107536
(dp7083
sI107537
(dp7084
sI107538
(dp7085
sI107539
(dp7086
sI107540
(dp7087
sI107541
(dp7088
sI107542
(dp7089
sI107543
(dp7090
sI107545
(dp7091
sI107547
(dp7092
sI107549
(dp7093
sI107550
(dp7094
sI107551
(dp7095
sI107552
(dp7096
sI107553
(dp7097
sI107554
(dp7098
sI107555
(dp7099
sI107556
(dp7100
sI107557
(dp7101
sI107558
(dp7102
sI107559
(dp7103
sI107560
(dp7104
sI107561
(dp7105
sI107562
(dp7106
sI107563
(dp7107
sI107564
(dp7108
sI107565
(dp7109
sI107566
(dp7110
sI107567
(dp7111
sI107568
(dp7112
sI107569
(dp7113
sI107570
(dp7114
sI107571
(dp7115
sI107572
(dp7116
sI107573
(dp7117
sI107574
(dp7118
sI107575
(dp7119
sI107576
(dp7120
sI107577
(dp7121
sI107578
(dp7122
sI107579
(dp7123
sI107580
(dp7124
sI107581
(dp7125
sI107582
(dp7126
sI107583
(dp7127
sI107584
(dp7128
sI107585
(dp7129
sI107586
(dp7130
sI107587
(dp7131
sI107588
(dp7132
sI107589
(dp7133
sI107590
(dp7134
sI107591
(dp7135
sI107592
(dp7136
sI107593
(dp7137
sI107594
(dp7138
sI107595
(dp7139
sI107596
(dp7140
sI107597
(dp7141
sI107598
(dp7142
sI107599
(dp7143
sI107600
(dp7144
sI107601
(dp7145
sI107602
(dp7146
sI107603
(dp7147
sI107604
(dp7148
sI107605
(dp7149
sI107606
(dp7150
sI107607
(dp7151
sI107608
(dp7152
sI107609
(dp7153
sI107610
(dp7154
sI107611
(dp7155
sI107612
(dp7156
sI107613
(dp7157
sI107614
(dp7158
sI107615
(dp7159
sI107616
(dp7160
sI107617
(dp7161
sI107618
(dp7162
sI107619
(dp7163
sI107620
(dp7164
sI107621
(dp7165
sI107622
(dp7166
sI107623
(dp7167
sI107624
(dp7168
sI107625
(dp7169
sI107626
(dp7170
sI107627
(dp7171
sI107628
(dp7172
sI107629
(dp7173
sI107630
(dp7174
sI107631
(dp7175
sI107632
(dp7176
sI107633
(dp7177
sI107634
(dp7178
sI107635
(dp7179
sI107636
(dp7180
sI107637
(dp7181
sI107638
(dp7182
sI107639
(dp7183
sI107640
(dp7184
sI107641
(dp7185
sI107642
(dp7186
sI107643
(dp7187
sI107644
(dp7188
sI107645
(dp7189
sI107646
(dp7190
sI107647
(dp7191
sI107648
(dp7192
sI107649
(dp7193
sI107650
(dp7194
sI107652
(dp7195
sI107653
(dp7196
sI107655
(dp7197
sI107656
(dp7198
sI107658
(dp7199
sI107659
(dp7200
sI107660
(dp7201
sI107661
(dp7202
sI107662
(dp7203
sI107663
(dp7204
sI107664
(dp7205
sI107665
(dp7206
sI107666
(dp7207
sI107667
(dp7208
sI107668
(dp7209
sI107669
(dp7210
sI107670
(dp7211
sI107671
(dp7212
sI107672
(dp7213
sI107673
(dp7214
sI107674
(dp7215
sI107675
(dp7216
sI107676
(dp7217
sI107677
(dp7218
sI107678
(dp7219
sI107679
(dp7220
sI107680
(dp7221
sI107681
(dp7222
sI107682
(dp7223
sI107683
(dp7224
sI107684
(dp7225
sI107685
(dp7226
sI107686
(dp7227
sI107687
(dp7228
sI107688
(dp7229
sI107689
(dp7230
sI107690
(dp7231
sI107691
(dp7232
sI107692
(dp7233
sI107693
(dp7234
sI107694
(dp7235
sI107695
(dp7236
sI107696
(dp7237
sI107697
(dp7238
sI107698
(dp7239
sI107699
(dp7240
sI107700
(dp7241
sI107701
(dp7242
sI107702
(dp7243
sI107703
(dp7244
sI107704
(dp7245
sI107705
(dp7246
sI107706
(dp7247
sI107707
(dp7248
sI107708
(dp7249
sI107710
(dp7250
sI107713
(dp7251
sI107714
(dp7252
sI107715
(dp7253
sI107717
(dp7254
sI107718
(dp7255
sI107719
(dp7256
sI107720
(dp7257
sI107721
(dp7258
sI107722
(dp7259
sI107723
(dp7260
sI107724
(dp7261
sI107725
(dp7262
sI107726
(dp7263
sI107727
(dp7264
sI107728
(dp7265
sI107729
(dp7266
sI107730
(dp7267
sI107731
(dp7268
sI107732
(dp7269
sI107733
(dp7270
sI107734
(dp7271
sI107735
(dp7272
sI107736
(dp7273
sI107737
(dp7274
sI107738
(dp7275
sI107739
(dp7276
sI107740
(dp7277
sI107742
(dp7278
sI107743
(dp7279
sI107744
(dp7280
sI107745
(dp7281
sI107746
(dp7282
sI107747
(dp7283
sI107748
(dp7284
sI107749
(dp7285
sI107750
(dp7286
sI107751
(dp7287
sI107752
(dp7288
sI107753
(dp7289
sI107755
(dp7290
sI107756
(dp7291
sI107757
(dp7292
sI107758
(dp7293
sI107759
(dp7294
sI107760
(dp7295
sI107761
(dp7296
sI107762
(dp7297
sI107764
(dp7298
sI107765
(dp7299
sI107769
(dp7300
sI107770
(dp7301
sI107771
(dp7302
sI107772
(dp7303
sI107773
(dp7304
sI107774
(dp7305
sI107775
(dp7306
sI107776
(dp7307
sI107777
(dp7308
sI107778
(dp7309
sI107779
(dp7310
sI107781
(dp7311
sI107782
(dp7312
sI107783
(dp7313
sI107784
(dp7314
sI107785
(dp7315
sI107786
(dp7316
sI107787
(dp7317
sI107788
(dp7318
sI107789
(dp7319
sI107790
(dp7320
sI107791
(dp7321
sI107792
(dp7322
sI107793
(dp7323
sI107794
(dp7324
sI107795
(dp7325
sI107796
(dp7326
sI107798
(dp7327
sI107799
(dp7328
sI107800
(dp7329
sI107801
(dp7330
sI107802
(dp7331
sI107803
(dp7332
sI107804
(dp7333
sI107805
(dp7334
sI107806
(dp7335
sI107807
(dp7336
sI107808
(dp7337
sI107809
(dp7338
sI107810
(dp7339
sI107811
(dp7340
sI107812
(dp7341
sI107813
(dp7342
sI107814
(dp7343
sI107815
(dp7344
sI107816
(dp7345
sI107817
(dp7346
sI107818
(dp7347
sI107819
(dp7348
sI107820
(dp7349
sI107821
(dp7350
sI107822
(dp7351
sI107823
(dp7352
sI107824
(dp7353
sI107825
(dp7354
sI107826
(dp7355
sI107827
(dp7356
sI107828
(dp7357
sI107829
(dp7358
sI107830
(dp7359
sI107831
(dp7360
sI107832
(dp7361
sI107833
(dp7362
sI107834
(dp7363
sI107835
(dp7364
sI107836
(dp7365
sI107837
(dp7366
sI107838
(dp7367
sI107839
(dp7368
sI107840
(dp7369
sI107841
(dp7370
sI107842
(dp7371
sI107843
(dp7372
sI107844
(dp7373
sI107845
(dp7374
sI107846
(dp7375
sI107847
(dp7376
sI107848
(dp7377
sI107849
(dp7378
sI107850
(dp7379
sI107851
(dp7380
sI107852
(dp7381
sI107853
(dp7382
sI107854
(dp7383
sI107855
(dp7384
sI107856
(dp7385
sI107857
(dp7386
sI107858
(dp7387
sI107859
(dp7388
sI107860
(dp7389
sI107861
(dp7390
sI107862
(dp7391
sI107863
(dp7392
sI107864
(dp7393
sI107865
(dp7394
sI107866
(dp7395
sI107868
(dp7396
sI107869
(dp7397
sI107870
(dp7398
sI107871
(dp7399
sI107872
(dp7400
sI107873
(dp7401
sI107874
(dp7402
sI107875
(dp7403
sI107876
(dp7404
sI107877
(dp7405
sI107878
(dp7406
sI107879
(dp7407
sI107880
(dp7408
sI107881
(dp7409
sI107882
(dp7410
sI107883
(dp7411
sI107884
(dp7412
sI107885
(dp7413
sI107886
(dp7414
sI107887
(dp7415
sI107888
(dp7416
sI107889
(dp7417
sI107890
(dp7418
sI107891
(dp7419
sI107892
(dp7420
sI107893
(dp7421
sI107894
(dp7422
sI107895
(dp7423
sI107896
(dp7424
sI107897
(dp7425
sI107898
(dp7426
sI107899
(dp7427
sI107900
(dp7428
sI107901
(dp7429
sI107902
(dp7430
sI107903
(dp7431
sI107904
(dp7432
sI107905
(dp7433
sI107906
(dp7434
sI107907
(dp7435
sI107908
(dp7436
sI107909
(dp7437
sI107910
(dp7438
sI107911
(dp7439
sI107912
(dp7440
sI107913
(dp7441
sI107914
(dp7442
sI107916
(dp7443
sI107917
(dp7444
sI107918
(dp7445
sI107919
(dp7446
sI107920
(dp7447
sI107921
(dp7448
sI107922
(dp7449
sI107923
(dp7450
sI107924
(dp7451
sI107925
(dp7452
sI107926
(dp7453
sI107927
(dp7454
sI107928
(dp7455
sI107930
(dp7456
sI107933
(dp7457
sI107934
(dp7458
sI107935
(dp7459
sI107936
(dp7460
sI107937
(dp7461
sI107938
(dp7462
sI107939
(dp7463
sI107940
(dp7464
sI107941
(dp7465
sI107942
(dp7466
sI107943
(dp7467
sI107944
(dp7468
sI107945
(dp7469
sI107946
(dp7470
sI107947
(dp7471
sI107948
(dp7472
sI107949
(dp7473
sI107951
(dp7474
sI107952
(dp7475
sI107953
(dp7476
sI107954
(dp7477
sI107955
(dp7478
sI107956
(dp7479
sI107957
(dp7480
sI107958
(dp7481
sI107959
(dp7482
sI107960
(dp7483
sI107961
(dp7484
sI107962
(dp7485
sI107963
(dp7486
sI107964
(dp7487
sI107965
(dp7488
sI107966
(dp7489
sI107967
(dp7490
sI107968
(dp7491
sI107969
(dp7492
sI107970
(dp7493
sI107971
(dp7494
sI107972
(dp7495
sI107973
(dp7496
sI107974
(dp7497
sI107975
(dp7498
sI107976
(dp7499
sI107977
(dp7500
sI107978
(dp7501
sI107979
(dp7502
sI107980
(dp7503
sI107981
(dp7504
sI107982
(dp7505
sI107983
(dp7506
sI107984
(dp7507
sI107985
(dp7508
sI107986
(dp7509
sI107987
(dp7510
sI107988
(dp7511
sI107989
(dp7512
sI107990
(dp7513
sI107991
(dp7514
sI107992
(dp7515
sI107993
(dp7516
sI107994
(dp7517
sI107995
(dp7518
sI107996
(dp7519
sI107997
(dp7520
sI107998
(dp7521
sI107999
(dp7522
sI108000
(dp7523
sI108001
(dp7524
sI108002
(dp7525
sI108003
(dp7526
sI108004
(dp7527
sI108005
(dp7528
sI108006
(dp7529
sI108007
(dp7530
sI108008
(dp7531
sI108009
(dp7532
sI108010
(dp7533
sI108011
(dp7534
sI108012
(dp7535
sI108013
(dp7536
sI108014
(dp7537
sI108015
(dp7538
sI108016
(dp7539
sI108017
(dp7540
sI108018
(dp7541
sI108019
(dp7542
sI108020
(dp7543
sI108021
(dp7544
sI108022
(dp7545
sI108023
(dp7546
sI108024
(dp7547
sI108025
(dp7548
sI108026
(dp7549
sI108028
(dp7550
sI108029
(dp7551
sI108030
(dp7552
sI108031
(dp7553
sI108032
(dp7554
sI108033
(dp7555
sI108034
(dp7556
sI108035
(dp7557
sI108036
(dp7558
sI108037
(dp7559
sI108038
(dp7560
sI108039
(dp7561
sI108040
(dp7562
sI108041
(dp7563
sI108042
(dp7564
sI108043
(dp7565
sI108044
(dp7566
sI108045
(dp7567
sI108046
(dp7568
sI108047
(dp7569
sI108048
(dp7570
sI108049
(dp7571
sI108050
(dp7572
sI108051
(dp7573
sI108052
(dp7574
sI108053
(dp7575
sI108054
(dp7576
sI108055
(dp7577
sI108056
(dp7578
sI108057
(dp7579
sI108058
(dp7580
sI108059
(dp7581
sI108060
(dp7582
sI108061
(dp7583
sI108062
(dp7584
sI108063
(dp7585
sI108064
(dp7586
sI108065
(dp7587
sI108066
(dp7588
sI108067
(dp7589
sI108068
(dp7590
sI108069
(dp7591
sI108072
(dp7592
sI108073
(dp7593
sI108074
(dp7594
sI108075
(dp7595
sI108076
(dp7596
sI108077
(dp7597
sI108078
(dp7598
sI108079
(dp7599
sI108080
(dp7600
sI108081
(dp7601
sI108082
(dp7602
sI108083
(dp7603
sI108084
(dp7604
sI108085
(dp7605
sI108086
(dp7606
sI108087
(dp7607
sI108088
(dp7608
sI108089
(dp7609
sI108090
(dp7610
sI108091
(dp7611
sI108092
(dp7612
sI108093
(dp7613
sI108094
(dp7614
sI108095
(dp7615
sI108096
(dp7616
sI108097
(dp7617
sI108098
(dp7618
sI108099
(dp7619
sI108100
(dp7620
sI108101
(dp7621
sI108102
(dp7622
sI108103
(dp7623
sI108104
(dp7624
sI108105
(dp7625
sI108106
(dp7626
sI108107
(dp7627
sI108108
(dp7628
sI108109
(dp7629
sI108110
(dp7630
sI108111
(dp7631
sI108112
(dp7632
sI108113
(dp7633
sI108114
(dp7634
sI108115
(dp7635
sI108116
(dp7636
sI108117
(dp7637
sI108118
(dp7638
sI108119
(dp7639
sI108120
(dp7640
sI108121
(dp7641
sI108122
(dp7642
sI108123
(dp7643
sI108124
(dp7644
sI108125
(dp7645
sI108127
(dp7646
sI108128
(dp7647
sI108129
(dp7648
sI108130
(dp7649
sI108131
(dp7650
sI108132
(dp7651
sI108133
(dp7652
sI108134
(dp7653
sI108135
(dp7654
sI108136
(dp7655
sI108137
(dp7656
sI108138
(dp7657
sI108139
(dp7658
sI108140
(dp7659
sI108141
(dp7660
sI108142
(dp7661
sI108143
(dp7662
sI108144
(dp7663
sI108145
(dp7664
sI108146
(dp7665
sI108147
(dp7666
sI108148
(dp7667
sI108149
(dp7668
sI108150
(dp7669
sI108151
(dp7670
sI108153
(dp7671
sI108154
(dp7672
sI108155
(dp7673
sI108156
(dp7674
sI108157
(dp7675
sI108158
(dp7676
sI108159
(dp7677
sI108161
(dp7678
sI108162
(dp7679
sI108163
(dp7680
sI108165
(dp7681
sI108166
(dp7682
sI108167
(dp7683
sI108168
(dp7684
sI108169
(dp7685
sI108170
(dp7686
sI108171
(dp7687
sI108172
(dp7688
sI108173
(dp7689
sI108174
(dp7690
sI108175
(dp7691
sI108176
(dp7692
sI108177
(dp7693
sI108178
(dp7694
sI108179
(dp7695
sI108180
(dp7696
sI108181
(dp7697
sI108182
(dp7698
sI108183
(dp7699
sI108184
(dp7700
sI108185
(dp7701
sI108186
(dp7702
sI108187
(dp7703
sI108188
(dp7704
sI108189
(dp7705
sI108190
(dp7706
sI108191
(dp7707
sI108193
(dp7708
sI108194
(dp7709
sI108195
(dp7710
sI108196
(dp7711
sI108197
(dp7712
sI108198
(dp7713
sI108199
(dp7714
sI108200
(dp7715
sI108201
(dp7716
sI108202
(dp7717
sI108203
(dp7718
sI108204
(dp7719
sI108205
(dp7720
sI108206
(dp7721
sI108207
(dp7722
sI108208
(dp7723
sI108209
(dp7724
sI108210
(dp7725
sI108211
(dp7726
sI108212
(dp7727
sI108213
(dp7728
sI108214
(dp7729
sI108215
(dp7730
sI108216
(dp7731
sI108217
(dp7732
sI108219
(dp7733
sI108220
(dp7734
sI108222
(dp7735
sI108223
(dp7736
sI108224
(dp7737
sI108226
(dp7738
sI108227
(dp7739
sI108228
(dp7740
sI108229
(dp7741
sI108230
(dp7742
sI108231
(dp7743
sI108232
(dp7744
sI108233
(dp7745
sI108234
(dp7746
sI108235
(dp7747
sI108237
(dp7748
sI108241
(dp7749
sI108242
(dp7750
sI108244
(dp7751
sI108249
(dp7752
sI108250
(dp7753
sI108251
(dp7754
sI108252
(dp7755
sI108253
(dp7756
sI108254
(dp7757
sI108255
(dp7758
sI108256
(dp7759
sI108257
(dp7760
sI108258
(dp7761
sI108259
(dp7762
sI108262
(dp7763
sI108263
(dp7764
sI108264
(dp7765
sI108265
(dp7766
sI108266
(dp7767
sI108267
(dp7768
sI108268
(dp7769
sI108269
(dp7770
sI108270
(dp7771
sI108271
(dp7772
sI108272
(dp7773
sI108273
(dp7774
sI108274
(dp7775
sI108275
(dp7776
sI108276
(dp7777
sI108277
(dp7778
sI108278
(dp7779
sI108279
(dp7780
sI108280
(dp7781
sI108281
(dp7782
sI108282
(dp7783
sI108283
(dp7784
sI108284
(dp7785
sI108285
(dp7786
sI108286
(dp7787
sI108287
(dp7788
sI108288
(dp7789
sI108289
(dp7790
sI108290
(dp7791
sI108291
(dp7792
sI108292
(dp7793
sI108293
(dp7794
sI108294
(dp7795
sI108295
(dp7796
sI108296
(dp7797
sI108297
(dp7798
sI108298
(dp7799
sI108299
(dp7800
sI108300
(dp7801
sI108301
(dp7802
sI108302
(dp7803
sI108303
(dp7804
sI108304
(dp7805
sI108305
(dp7806
sI108306
(dp7807
sI108307
(dp7808
sI108308
(dp7809
sI108309
(dp7810
sI108310
(dp7811
sI108311
(dp7812
sI108313
(dp7813
sI108314
(dp7814
sI108315
(dp7815
sI108316
(dp7816
sI108317
(dp7817
sI108318
(dp7818
sI108319
(dp7819
sI108320
(dp7820
sI108321
(dp7821
sI108322
(dp7822
sI108323
(dp7823
sI108324
(dp7824
sI108325
(dp7825
sI108326
(dp7826
sI108327
(dp7827
sI108328
(dp7828
sI108329
(dp7829
sI108330
(dp7830
sI108332
(dp7831
sI108333
(dp7832
sI108334
(dp7833
sI108335
(dp7834
sI108336
(dp7835
sI108337
(dp7836
sI108338
(dp7837
sI108339
(dp7838
sI108340
(dp7839
sI108341
(dp7840
sI108342
(dp7841
sI108343
(dp7842
sI108344
(dp7843
sI108345
(dp7844
sI108346
(dp7845
sI108347
(dp7846
sI108348
(dp7847
sI108349
(dp7848
sI108350
(dp7849
sI108351
(dp7850
sI108352
(dp7851
sI108353
(dp7852
sI108354
(dp7853
sI108355
(dp7854
sI108356
(dp7855
sI108357
(dp7856
sI108358
(dp7857
sI108359
(dp7858
sI108360
(dp7859
sI108361
(dp7860
sI108362
(dp7861
sI108363
(dp7862
sI108364
(dp7863
sI108365
(dp7864
sI108366
(dp7865
sI108367
(dp7866
sI108368
(dp7867
sI108369
(dp7868
sI108370
(dp7869
sI108371
(dp7870
sI108372
(dp7871
sI108373
(dp7872
sI108374
(dp7873
sI108375
(dp7874
sI108376
(dp7875
sI108377
(dp7876
sI108378
(dp7877
sI108379
(dp7878
sI108380
(dp7879
sI108381
(dp7880
sI108382
(dp7881
sI108383
(dp7882
sI108384
(dp7883
sI108385
(dp7884
sI108386
(dp7885
sI108387
(dp7886
sI108388
(dp7887
sI108389
(dp7888
sI108390
(dp7889
sI108391
(dp7890
sI108392
(dp7891
sI108394
(dp7892
sI108395
(dp7893
sI108396
(dp7894
sI108397
(dp7895
sI108398
(dp7896
sI108399
(dp7897
sI108400
(dp7898
sI108401
(dp7899
sI108402
(dp7900
sI108403
(dp7901
sI108404
(dp7902
sI108405
(dp7903
sI108406
(dp7904
sI108407
(dp7905
sI108408
(dp7906
sI108409
(dp7907
sI108410
(dp7908
sI108411
(dp7909
sI108412
(dp7910
sI108413
(dp7911
sI108414
(dp7912
sI108415
(dp7913
sI108416
(dp7914
sI108417
(dp7915
sI108418
(dp7916
sI108419
(dp7917
sI108420
(dp7918
sI108421
(dp7919
sI108422
(dp7920
sI108423
(dp7921
sI108424
(dp7922
sI108425
(dp7923
sI108426
(dp7924
sI108427
(dp7925
sI108428
(dp7926
sI108429
(dp7927
sI108430
(dp7928
sI108431
(dp7929
sI108432
(dp7930
sI108433
(dp7931
sI108434
(dp7932
sI108435
(dp7933
sI108436
(dp7934
sI108437
(dp7935
sI108438
(dp7936
sI108439
(dp7937
sI108440
(dp7938
sI108441
(dp7939
sI108442
(dp7940
sI108443
(dp7941
sI108444
(dp7942
sI108445
(dp7943
sI108446
(dp7944
sI108447
(dp7945
sI108448
(dp7946
sI108449
(dp7947
sI108450
(dp7948
sI108451
(dp7949
sI108454
(dp7950
sI108455
(dp7951
sI108456
(dp7952
sI108457
(dp7953
sI108458
(dp7954
sI108459
(dp7955
sI108460
(dp7956
sI108461
(dp7957
sI108462
(dp7958
sI108463
(dp7959
sI108464
(dp7960
sI108465
(dp7961
sI108466
(dp7962
sI108467
(dp7963
sI108468
(dp7964
sI108469
(dp7965
sI108470
(dp7966
sI108471
(dp7967
sI108472
(dp7968
sI108473
(dp7969
sI108474
(dp7970
sI108475
(dp7971
sI108476
(dp7972
sI108478
(dp7973
sI108479
(dp7974
sI108480
(dp7975
sI108481
(dp7976
sI108482
(dp7977
sI108483
(dp7978
sI108484
(dp7979
sI108485
(dp7980
sI108486
(dp7981
sI108487
(dp7982
sI108488
(dp7983
sI108489
(dp7984
sI108490
(dp7985
sI108491
(dp7986
sI108492
(dp7987
sI108493
(dp7988
sI108495
(dp7989
sI108496
(dp7990
sI108497
(dp7991
sI108498
(dp7992
sI108499
(dp7993
sI108500
(dp7994
sI108501
(dp7995
sI108502
(dp7996
sI108503
(dp7997
sI108504
(dp7998
sI108505
(dp7999
sI108506
(dp8000
sI108507
(dp8001
sI108508
(dp8002
sI108509
(dp8003
sI108510
(dp8004
sI108511
(dp8005
sI108512
(dp8006
sI108513
(dp8007
sI108514
(dp8008
sI108515
(dp8009
sI108517
(dp8010
sI108518
(dp8011
sI108519
(dp8012
sI108520
(dp8013
sI108521
(dp8014
sI108522
(dp8015
sI108523
(dp8016
sI108524
(dp8017
sI108525
(dp8018
sI108526
(dp8019
sI108527
(dp8020
sI108528
(dp8021
sI108529
(dp8022
sI108530
(dp8023
sI108531
(dp8024
sI108532
(dp8025
sI108533
(dp8026
sI108534
(dp8027
sI108535
(dp8028
sI108536
(dp8029
sI108537
(dp8030
sI108538
(dp8031
sI108539
(dp8032
sI108540
(dp8033
sI108541
(dp8034
sI108542
(dp8035
sI108543
(dp8036
sI108544
(dp8037
sI108545
(dp8038
sI108546
(dp8039
sI108547
(dp8040
sI108548
(dp8041
sI108549
(dp8042
sI108550
(dp8043
sI108551
(dp8044
sI108552
(dp8045
sI108553
(dp8046
sI108554
(dp8047
sI108555
(dp8048
sI108556
(dp8049
sI108557
(dp8050
sI108558
(dp8051
sI108559
(dp8052
sI108560
(dp8053
sI108561
(dp8054
sI108562
(dp8055
sI108563
(dp8056
sI108564
(dp8057
sI108565
(dp8058
sI108566
(dp8059
sI108567
(dp8060
sI108568
(dp8061
sI108569
(dp8062
sI108570
(dp8063
sI108571
(dp8064
sI108572
(dp8065
sI108573
(dp8066
sI108574
(dp8067
sI108575
(dp8068
sI108576
(dp8069
sI108577
(dp8070
sI108578
(dp8071
sI108579
(dp8072
sI108580
(dp8073
sI108581
(dp8074
sI108582
(dp8075
sI108583
(dp8076
sI108584
(dp8077
sI108585
(dp8078
sI108586
(dp8079
sI108587
(dp8080
sI108588
(dp8081
sI108589
(dp8082
sI108590
(dp8083
sI108591
(dp8084
sI108592
(dp8085
sI108593
(dp8086
sI108594
(dp8087
sI108595
(dp8088
sI108596
(dp8089
sI108597
(dp8090
sI108598
(dp8091
sI108599
(dp8092
sI108600
(dp8093
sI108601
(dp8094
sI108602
(dp8095
sI108603
(dp8096
sI108604
(dp8097
sI108606
(dp8098
sI108607
(dp8099
sI108608
(dp8100
sI108609
(dp8101
sI108610
(dp8102
sI108611
(dp8103
sI108612
(dp8104
sI108613
(dp8105
sI108614
(dp8106
sI108615
(dp8107
sI108616
(dp8108
sI108617
(dp8109
sI108618
(dp8110
sI108619
(dp8111
sI108620
(dp8112
sI108621
(dp8113
sI108622
(dp8114
sI108623
(dp8115
sI108624
(dp8116
sI108625
(dp8117
sI108626
(dp8118
sI108627
(dp8119
sI108628
(dp8120
sI108629
(dp8121
sI108630
(dp8122
sI108631
(dp8123
sI108632
(dp8124
sI108633
(dp8125
sI108634
(dp8126
sI108635
(dp8127
sI108636
(dp8128
sI108637
(dp8129
sI108638
(dp8130
sI108639
(dp8131
sI108640
(dp8132
sI108641
(dp8133
sI108642
(dp8134
sI108643
(dp8135
sI108644
(dp8136
sI108645
(dp8137
sI108646
(dp8138
sI108647
(dp8139
sI108648
(dp8140
sI108649
(dp8141
sI108650
(dp8142
sI108651
(dp8143
sI108652
(dp8144
sI108653
(dp8145
sI108654
(dp8146
sI108655
(dp8147
sI108656
(dp8148
sI108657
(dp8149
sI108658
(dp8150
sI108659
(dp8151
sI108660
(dp8152
sI108661
(dp8153
sI108662
(dp8154
sI108663
(dp8155
sI108664
(dp8156
sI108665
(dp8157
sI108666
(dp8158
sI108667
(dp8159
sI108668
(dp8160
sI108669
(dp8161
sI108670
(dp8162
sI108671
(dp8163
sI108672
(dp8164
sI108673
(dp8165
sI108674
(dp8166
sI108675
(dp8167
sI108676
(dp8168
sI108677
(dp8169
sI108678
(dp8170
sI108679
(dp8171
sI108680
(dp8172
sI108681
(dp8173
sI108682
(dp8174
sI108683
(dp8175
sI108684
(dp8176
sI108685
(dp8177
sI108686
(dp8178
sI108687
(dp8179
sI108688
(dp8180
sI108689
(dp8181
sI108690
(dp8182
sI108691
(dp8183
sI108692
(dp8184
sI108693
(dp8185
sI108694
(dp8186
sI108695
(dp8187
sI108696
(dp8188
sI108697
(dp8189
sI108698
(dp8190
sI108699
(dp8191
sI108700
(dp8192
sI108701
(dp8193
sI108702
(dp8194
sI108703
(dp8195
sI108704
(dp8196
sI108705
(dp8197
sI108706
(dp8198
sI108707
(dp8199
sI108708
(dp8200
sI108709
(dp8201
sI108710
(dp8202
sI108711
(dp8203
sI108712
(dp8204
sI108713
(dp8205
sI108714
(dp8206
sI108715
(dp8207
sI108716
(dp8208
sI108717
(dp8209
sI108718
(dp8210
sI108719
(dp8211
sI108720
(dp8212
sI108721
(dp8213
sI108722
(dp8214
sI108723
(dp8215
sI108724
(dp8216
sI108725
(dp8217
sI108726
(dp8218
sI108727
(dp8219
sI108728
(dp8220
sI108729
(dp8221
sI108730
(dp8222
sI108731
(dp8223
sI108732
(dp8224
sI108733
(dp8225
sI108734
(dp8226
sI108735
(dp8227
sI108737
(dp8228
sI108738
(dp8229
sI108739
(dp8230
sI108740
(dp8231
sI108741
(dp8232
sI108742
(dp8233
sI108743
(dp8234
sI108744
(dp8235
sI108745
(dp8236
sI108746
(dp8237
sI108747
(dp8238
sI108748
(dp8239
sI108749
(dp8240
sI108750
(dp8241
sI108751
(dp8242
sI108752
(dp8243
sI108753
(dp8244
sI108754
(dp8245
sI108755
(dp8246
sI108756
(dp8247
sI108757
(dp8248
sI108758
(dp8249
sI108759
(dp8250
sI108760
(dp8251
sI108761
(dp8252
sI108762
(dp8253
sI108763
(dp8254
sI108764
(dp8255
sI108766
(dp8256
sI108767
(dp8257
sI108768
(dp8258
sI108769
(dp8259
sI108770
(dp8260
sI108771
(dp8261
sI108772
(dp8262
sI108773
(dp8263
sI108774
(dp8264
sI108775
(dp8265
sI108777
(dp8266
sI108778
(dp8267
sI108779
(dp8268
sI108780
(dp8269
sI108781
(dp8270
sI108782
(dp8271
sI108783
(dp8272
sI108784
(dp8273
sI108785
(dp8274
sI108786
(dp8275
sI108787
(dp8276
sI108788
(dp8277
sI108789
(dp8278
sI108790
(dp8279
sI108791
(dp8280
sI108792
(dp8281
sI108793
(dp8282
sI108794
(dp8283
sI108795
(dp8284
sI108796
(dp8285
sI108797
(dp8286
sI108798
(dp8287
sI108799
(dp8288
sI108800
(dp8289
sI108801
(dp8290
sI108802
(dp8291
sI108803
(dp8292
sI108804
(dp8293
sI108805
(dp8294
sI108806
(dp8295
sI108807
(dp8296
sI108809
(dp8297
sI108810
(dp8298
sI108811
(dp8299
sI108812
(dp8300
sI108813
(dp8301
sI108814
(dp8302
sI108815
(dp8303
sI108816
(dp8304
sI108817
(dp8305
sI108818
(dp8306
sI108819
(dp8307
sI108820
(dp8308
sI108821
(dp8309
sI108822
(dp8310
sI108823
(dp8311
sI108824
(dp8312
sI108825
(dp8313
sI108826
(dp8314
sI108827
(dp8315
sI108828
(dp8316
sI108829
(dp8317
sI108830
(dp8318
sI108831
(dp8319
sI108832
(dp8320
sI108833
(dp8321
sI108835
(dp8322
sI108836
(dp8323
sI108837
(dp8324
sI108838
(dp8325
sI108839
(dp8326
sI108840
(dp8327
sI108841
(dp8328
sI108842
(dp8329
sI108843
(dp8330
sI108844
(dp8331
sI108845
(dp8332
sI108846
(dp8333
sI108847
(dp8334
sI108848
(dp8335
sI108849
(dp8336
sI108850
(dp8337
sI108851
(dp8338
sI108852
(dp8339
sI108853
(dp8340
sI108854
(dp8341
sI108855
(dp8342
sI108856
(dp8343
sI108857
(dp8344
sI108858
(dp8345
sI108859
(dp8346
sI108860
(dp8347
sI108861
(dp8348
sI108862
(dp8349
sI108863
(dp8350
sI108864
(dp8351
sI108865
(dp8352
sI108866
(dp8353
sI108867
(dp8354
sI108868
(dp8355
sI108869
(dp8356
sI108870
(dp8357
sI108871
(dp8358
sI108872
(dp8359
sI108873
(dp8360
sI108874
(dp8361
sI108875
(dp8362
sI108876
(dp8363
sI108877
(dp8364
sI108878
(dp8365
sI108879
(dp8366
sI108880
(dp8367
sI108881
(dp8368
sI108882
(dp8369
sI108883
(dp8370
sI108884
(dp8371
sI108885
(dp8372
sI108886
(dp8373
sI108887
(dp8374
sI108888
(dp8375
sI108889
(dp8376
sI108890
(dp8377
sI108891
(dp8378
sI108892
(dp8379
sI108893
(dp8380
sI108894
(dp8381
sI108895
(dp8382
sI108896
(dp8383
sI108897
(dp8384
sI108898
(dp8385
sI108899
(dp8386
sI108900
(dp8387
sI108901
(dp8388
sI108903
(dp8389
sI108905
(dp8390
sI108906
(dp8391
sI108907
(dp8392
sI108908
(dp8393
sI108909
(dp8394
sI108910
(dp8395
sI108911
(dp8396
sI108912
(dp8397
sI108913
(dp8398
sI108914
(dp8399
sI108915
(dp8400
sI108916
(dp8401
sI108917
(dp8402
sI108918
(dp8403
sI108919
(dp8404
sI108920
(dp8405
sI108921
(dp8406
sI108922
(dp8407
sI108923
(dp8408
sI108924
(dp8409
sI108925
(dp8410
sI108926
(dp8411
sI108927
(dp8412
sI108928
(dp8413
sI108929
(dp8414
sI108931
(dp8415
sI108932
(dp8416
sI108933
(dp8417
sI108934
(dp8418
sI108935
(dp8419
sI108936
(dp8420
sI108937
(dp8421
sI108938
(dp8422
sI108939
(dp8423
sI108940
(dp8424
sI108941
(dp8425
sI108942
(dp8426
sI108943
(dp8427
sI108944
(dp8428
sI108945
(dp8429
sI108946
(dp8430
sI108947
(dp8431
sI108948
(dp8432
sI108950
(dp8433
sI108951
(dp8434
sI108952
(dp8435
sI108953
(dp8436
sI108954
(dp8437
sI108955
(dp8438
sI108956
(dp8439
sI108957
(dp8440
sI108958
(dp8441
sI108959
(dp8442
sI108960
(dp8443
sI108961
(dp8444
sI108962
(dp8445
sI108963
(dp8446
sI108964
(dp8447
sI108965
(dp8448
sI108966
(dp8449
sI108967
(dp8450
sI108968
(dp8451
sI108969
(dp8452
sI108970
(dp8453
sI108971
(dp8454
sI108972
(dp8455
sI108973
(dp8456
sI108974
(dp8457
sI108975
(dp8458
sI108976
(dp8459
sI108977
(dp8460
sI108978
(dp8461
sI108979
(dp8462
sI108980
(dp8463
sI108981
(dp8464
sI108982
(dp8465
sI108983
(dp8466
sI108984
(dp8467
sI108985
(dp8468
sI108986
(dp8469
sI108987
(dp8470
sI108988
(dp8471
sI108990
(dp8472
sI108991
(dp8473
sI108992
(dp8474
sI108993
(dp8475
sI108994
(dp8476
sI108995
(dp8477
sI108996
(dp8478
sI108997
(dp8479
sI108998
(dp8480
sI108999
(dp8481
sI109000
(dp8482
sI109001
(dp8483
sI109002
(dp8484
sI109003
(dp8485
sI109004
(dp8486
sI109005
(dp8487
sI109006
(dp8488
sI109007
(dp8489
sI109008
(dp8490
sI109009
(dp8491
sI109010
(dp8492
sI109011
(dp8493
sI109012
(dp8494
sI109013
(dp8495
sI109014
(dp8496
sI109015
(dp8497
sI109016
(dp8498
sI109017
(dp8499
sI109018
(dp8500
sI109019
(dp8501
sI109020
(dp8502
sI109021
(dp8503
sI109022
(dp8504
sI109024
(dp8505
sI109025
(dp8506
sI109026
(dp8507
sI109027
(dp8508
sI109028
(dp8509
sI109029
(dp8510
sI109030
(dp8511
sI109031
(dp8512
sI109033
(dp8513
sI109034
(dp8514
sI109035
(dp8515
sI109036
(dp8516
sI109037
(dp8517
sI109038
(dp8518
sI109039
(dp8519
sI109040
(dp8520
sI109041
(dp8521
sI109042
(dp8522
sI109043
(dp8523
sI109044
(dp8524
sI109045
(dp8525
sI109046
(dp8526
sI109047
(dp8527
sI109048
(dp8528
sI109050
(dp8529
sI109051
(dp8530
sI109052
(dp8531
sI109053
(dp8532
sI109054
(dp8533
sI109056
(dp8534
sI109057
(dp8535
sI109058
(dp8536
sI109059
(dp8537
sI109060
(dp8538
sI109061
(dp8539
sI109062
(dp8540
sI109063
(dp8541
sI109064
(dp8542
sI109065
(dp8543
sI109066
(dp8544
sI109067
(dp8545
sI109068
(dp8546
sI109069
(dp8547
sI109070
(dp8548
sI109071
(dp8549
sI109072
(dp8550
sI109073
(dp8551
sI109074
(dp8552
sI109075
(dp8553
sI109076
(dp8554
sI109077
(dp8555
sI109078
(dp8556
sI109079
(dp8557
sI109080
(dp8558
sI109081
(dp8559
sI109082
(dp8560
sI109083
(dp8561
sI109084
(dp8562
sI109085
(dp8563
sI109086
(dp8564
sI109087
(dp8565
sI109088
(dp8566
sI109089
(dp8567
sI109090
(dp8568
sI109091
(dp8569
sI109092
(dp8570
sI109093
(dp8571
sI109094
(dp8572
sI109095
(dp8573
sI109096
(dp8574
sI109097
(dp8575
sI109098
(dp8576
sI109099
(dp8577
sI109100
(dp8578
sI109101
(dp8579
sI109102
(dp8580
sI109103
(dp8581
sI109104
(dp8582
sI109105
(dp8583
sI109106
(dp8584
sI109107
(dp8585
sI109108
(dp8586
sI109109
(dp8587
sI109110
(dp8588
sI109111
(dp8589
sI109112
(dp8590
sI109113
(dp8591
sI109114
(dp8592
sI109115
(dp8593
sI109116
(dp8594
sI109117
(dp8595
sI109118
(dp8596
sI109119
(dp8597
sI109120
(dp8598
sI109121
(dp8599
sI109122
(dp8600
sI109123
(dp8601
sI109124
(dp8602
sI109125
(dp8603
sI109126
(dp8604
sI109127
(dp8605
sI109128
(dp8606
sI109129
(dp8607
sI109130
(dp8608
sI109131
(dp8609
sI109132
(dp8610
sI109133
(dp8611
sI109134
(dp8612
sI109135
(dp8613
sI109136
(dp8614
sI109137
(dp8615
sI109138
(dp8616
sI109139
(dp8617
sI109140
(dp8618
sI109141
(dp8619
sI109142
(dp8620
sI109143
(dp8621
sI109144
(dp8622
sI109145
(dp8623
sI109146
(dp8624
sI109147
(dp8625
sI109148
(dp8626
sI109149
(dp8627
sI109150
(dp8628
sI109151
(dp8629
sI109152
(dp8630
sI109153
(dp8631
sI109154
(dp8632
sI109155
(dp8633
sI109156
(dp8634
sI109157
(dp8635
sI109158
(dp8636
sI109159
(dp8637
sI109160
(dp8638
sI109161
(dp8639
sI109162
(dp8640
sI109163
(dp8641
sI109164
(dp8642
sI109165
(dp8643
sI109166
(dp8644
sI109167
(dp8645
sI109168
(dp8646
sI109169
(dp8647
sI109170
(dp8648
sI109171
(dp8649
sI109172
(dp8650
sI109173
(dp8651
sI109174
(dp8652
sI109175
(dp8653
sI109176
(dp8654
sI109177
(dp8655
sI109178
(dp8656
sI109179
(dp8657
sI109180
(dp8658
sI109181
(dp8659
sI109182
(dp8660
sI109183
(dp8661
sI109184
(dp8662
sI109185
(dp8663
sI109186
(dp8664
sI109187
(dp8665
sI109188
(dp8666
sI109189
(dp8667
sI109190
(dp8668
sI109191
(dp8669
sI109192
(dp8670
sI109193
(dp8671
sI109194
(dp8672
sI109195
(dp8673
sI109196
(dp8674
sI109197
(dp8675
sI109198
(dp8676
sI109199
(dp8677
sI109200
(dp8678
sI109201
(dp8679
sI109202
(dp8680
sI109203
(dp8681
sI109204
(dp8682
sI109205
(dp8683
sI109206
(dp8684
sI109207
(dp8685
sI109208
(dp8686
sI109209
(dp8687
sI109210
(dp8688
sI109211
(dp8689
sI109212
(dp8690
sI109213
(dp8691
sI109215
(dp8692
sI109216
(dp8693
sI109217
(dp8694
sI109218
(dp8695
sI109219
(dp8696
sI109220
(dp8697
sI109221
(dp8698
sI109222
(dp8699
sI109223
(dp8700
sI109224
(dp8701
sI109225
(dp8702
sI109226
(dp8703
sI109227
(dp8704
sI109228
(dp8705
sI109229
(dp8706
sI109230
(dp8707
sI109231
(dp8708
sI109232
(dp8709
sI109233
(dp8710
sI109234
(dp8711
sI109235
(dp8712
sI109236
(dp8713
sI109237
(dp8714
sI109238
(dp8715
sI109239
(dp8716
sI109240
(dp8717
sI109241
(dp8718
sI109242
(dp8719
sI109243
(dp8720
sI109244
(dp8721
sI109245
(dp8722
sI109246
(dp8723
sI109247
(dp8724
sI109248
(dp8725
sI109249
(dp8726
sI109250
(dp8727
sI109251
(dp8728
sI109252
(dp8729
sI109253
(dp8730
sI109254
(dp8731
sI109255
(dp8732
sI109256
(dp8733
sI109257
(dp8734
sI109258
(dp8735
sI109259
(dp8736
sI109260
(dp8737
sI109261
(dp8738
sI109262
(dp8739
sI109263
(dp8740
sI109264
(dp8741
sI109265
(dp8742
sI109266
(dp8743
sI109267
(dp8744
sI109268
(dp8745
sI109269
(dp8746
sI109270
(dp8747
sI109271
(dp8748
sI109272
(dp8749
sI109273
(dp8750
sI109274
(dp8751
sI109275
(dp8752
sI109276
(dp8753
sI109277
(dp8754
sI109278
(dp8755
sI109279
(dp8756
sI109280
(dp8757
sI109281
(dp8758
sI109282
(dp8759
sI109283
(dp8760
sI109284
(dp8761
sI109285
(dp8762
sI109286
(dp8763
sI109287
(dp8764
sI109288
(dp8765
sI109289
(dp8766
sI109290
(dp8767
sI109291
(dp8768
sI109292
(dp8769
sI109293
(dp8770
sI109294
(dp8771
sI109295
(dp8772
sI109296
(dp8773
sI109297
(dp8774
sI109298
(dp8775
sI109299
(dp8776
sI109300
(dp8777
sI109301
(dp8778
sI109302
(dp8779
sI109303
(dp8780
sI109304
(dp8781
sI109305
(dp8782
sI109306
(dp8783
sI109307
(dp8784
sI109308
(dp8785
sI109309
(dp8786
sI109311
(dp8787
sI109312
(dp8788
sI109313
(dp8789
sI109314
(dp8790
sI109315
(dp8791
sI109316
(dp8792
sI109317
(dp8793
sI109318
(dp8794
sI109319
(dp8795
sI109320
(dp8796
sI109321
(dp8797
sI109322
(dp8798
sI109323
(dp8799
sI109324
(dp8800
sI109325
(dp8801
sI109326
(dp8802
sI109327
(dp8803
sI109328
(dp8804
sI109329
(dp8805
sI109330
(dp8806
sI109331
(dp8807
sI109332
(dp8808
sI109333
(dp8809
sI109334
(dp8810
sI109335
(dp8811
sI109336
(dp8812
sI109337
(dp8813
sI109338
(dp8814
sI109339
(dp8815
sI109340
(dp8816
sI109341
(dp8817
sI109342
(dp8818
sI109343
(dp8819
sI109344
(dp8820
sI109345
(dp8821
sI109346
(dp8822
sI109347
(dp8823
sI109348
(dp8824
sI109349
(dp8825
sI109350
(dp8826
sI109351
(dp8827
sI109352
(dp8828
sI109353
(dp8829
sI109354
(dp8830
sI109355
(dp8831
sI109356
(dp8832
sI109357
(dp8833
sI109358
(dp8834
sI109359
(dp8835
sI109360
(dp8836
sI109361
(dp8837
sI109362
(dp8838
sI109363
(dp8839
sI109364
(dp8840
sI109365
(dp8841
sI109366
(dp8842
sI109367
(dp8843
sI109368
(dp8844
sI109369
(dp8845
sI109370
(dp8846
sI109371
(dp8847
sI109372
(dp8848
sI109373
(dp8849
sI109374
(dp8850
sI109375
(dp8851
sI109376
(dp8852
sI109377
(dp8853
sI109378
(dp8854
sI109379
(dp8855
sI109380
(dp8856
sI109381
(dp8857
sI109382
(dp8858
sI109383
(dp8859
sI109384
(dp8860
sI109385
(dp8861
sI109386
(dp8862
sI109387
(dp8863
sI109388
(dp8864
sI109389
(dp8865
sI109390
(dp8866
sI109391
(dp8867
sI109392
(dp8868
sI109393
(dp8869
sI109394
(dp8870
sI109395
(dp8871
sI109396
(dp8872
sI109397
(dp8873
sI109398
(dp8874
sI109401
(dp8875
sI109402
(dp8876
sI109404
(dp8877
sI109405
(dp8878
sI109406
(dp8879
sI109407
(dp8880
sI109408
(dp8881
sI109409
(dp8882
sI109410
(dp8883
sI109411
(dp8884
sI109412
(dp8885
sI109413
(dp8886
sI109414
(dp8887
sI109415
(dp8888
sI109416
(dp8889
sI109417
(dp8890
sI109418
(dp8891
sI109419
(dp8892
sI109420
(dp8893
sI109421
(dp8894
sI109422
(dp8895
sI109423
(dp8896
sI109424
(dp8897
sI109425
(dp8898
sI109426
(dp8899
sI109427
(dp8900
sI109428
(dp8901
sI109429
(dp8902
sI109430
(dp8903
sI109431
(dp8904
sI109432
(dp8905
sI109433
(dp8906
sI109434
(dp8907
sI109435
(dp8908
sI109436
(dp8909
sI109437
(dp8910
sI109438
(dp8911
sI109439
(dp8912
sI109440
(dp8913
sI109441
(dp8914
sI109442
(dp8915
sI109443
(dp8916
sI109444
(dp8917
sI109445
(dp8918
sI109446
(dp8919
sI109447
(dp8920
sI109448
(dp8921
sI109449
(dp8922
sI109450
(dp8923
sI109451
(dp8924
sI109452
(dp8925
sI109453
(dp8926
sI109454
(dp8927
sI109455
(dp8928
sI109456
(dp8929
sI109457
(dp8930
sI109458
(dp8931
sI109460
(dp8932
sI109461
(dp8933
sI109462
(dp8934
sI109463
(dp8935
sI109464
(dp8936
sI109465
(dp8937
sI109466
(dp8938
sI109467
(dp8939
sI109468
(dp8940
sI109469
(dp8941
sI109470
(dp8942
sI109471
(dp8943
sI109472
(dp8944
sI109473
(dp8945
sI109474
(dp8946
sI109475
(dp8947
sI109476
(dp8948
sI109477
(dp8949
sI109478
(dp8950
sI109479
(dp8951
sI109480
(dp8952
sI109481
(dp8953
sI109482
(dp8954
sI109483
(dp8955
sI109484
(dp8956
sI109485
(dp8957
sI109486
(dp8958
sI109487
(dp8959
sI109488
(dp8960
sI109489
(dp8961
sI109490
(dp8962
sI109491
(dp8963
sI109492
(dp8964
sI109493
(dp8965
sI109494
(dp8966
sI109495
(dp8967
sI109496
(dp8968
sI109497
(dp8969
sI109498
(dp8970
sI109500
(dp8971
sI109501
(dp8972
sI109502
(dp8973
sI109503
(dp8974
sI109504
(dp8975
sI109505
(dp8976
sI109506
(dp8977
sI109507
(dp8978
sI109508
(dp8979
sI109509
(dp8980
sI109510
(dp8981
sI109511
(dp8982
sI109512
(dp8983
sI109513
(dp8984
sI109514
(dp8985
sI109515
(dp8986
sI109516
(dp8987
sI109517
(dp8988
sI109518
(dp8989
sI109519
(dp8990
sI109520
(dp8991
sI109521
(dp8992
sI109523
(dp8993
sI109524
(dp8994
sI109525
(dp8995
sI109526
(dp8996
sI109527
(dp8997
sI109528
(dp8998
sI109529
(dp8999
sI109530
(dp9000
sI109531
(dp9001
sI109532
(dp9002
sI109533
(dp9003
sI109534
(dp9004
sI109535
(dp9005
sI109536
(dp9006
sI109537
(dp9007
sI109538
(dp9008
sI109539
(dp9009
sI109540
(dp9010
sI109541
(dp9011
sI109542
(dp9012
sI109543
(dp9013
sI109544
(dp9014
sI109545
(dp9015
sI109546
(dp9016
sI109547
(dp9017
sI109548
(dp9018
sI109549
(dp9019
sI109550
(dp9020
sI109551
(dp9021
sI109552
(dp9022
sI109553
(dp9023
sI109554
(dp9024
sI109555
(dp9025
sI109556
(dp9026
sI109557
(dp9027
sI109558
(dp9028
sI109559
(dp9029
sI109560
(dp9030
sI109561
(dp9031
sI109562
(dp9032
sI109563
(dp9033
sI109565
(dp9034
sI109566
(dp9035
sI109567
(dp9036
sI109568
(dp9037
sI109569
(dp9038
sI109570
(dp9039
sI109571
(dp9040
sI109572
(dp9041
sI109573
(dp9042
sI109574
(dp9043
sI109575
(dp9044
sI109576
(dp9045
sI109577
(dp9046
sI109578
(dp9047
sI109579
(dp9048
sI109580
(dp9049
sI109581
(dp9050
sI109582
(dp9051
sI109583
(dp9052
sI109584
(dp9053
sI109585
(dp9054
sI109586
(dp9055
sI109587
(dp9056
sI109588
(dp9057
sI109589
(dp9058
sI109590
(dp9059
sI109591
(dp9060
sI109592
(dp9061
sI109594
(dp9062
sI109595
(dp9063
sI109596
(dp9064
sI109597
(dp9065
sI109598
(dp9066
sI109599
(dp9067
sI109600
(dp9068
sI109601
(dp9069
sI109602
(dp9070
sI109603
(dp9071
sI109604
(dp9072
sI109605
(dp9073
sI109606
(dp9074
sI109607
(dp9075
sI109608
(dp9076
sI109609
(dp9077
sI109610
(dp9078
sI109611
(dp9079
sI109612
(dp9080
sI109613
(dp9081
sI109614
(dp9082
sI109615
(dp9083
sI109616
(dp9084
sI109617
(dp9085
sI109618
(dp9086
sI109619
(dp9087
sI109620
(dp9088
sI109621
(dp9089
sI109622
(dp9090
sI109623
(dp9091
sI109624
(dp9092
sI109625
(dp9093
sI109626
(dp9094
sI109627
(dp9095
sI109629
(dp9096
sI109630
(dp9097
sI109631
(dp9098
sI109632
(dp9099
sI109633
(dp9100
sI109635
(dp9101
sI109636
(dp9102
sI109637
(dp9103
sI109638
(dp9104
sI109639
(dp9105
sI109640
(dp9106
sI109641
(dp9107
sI109642
(dp9108
sI109643
(dp9109
sI109644
(dp9110
sI109645
(dp9111
sI109646
(dp9112
sI109647
(dp9113
sI109648
(dp9114
sI109649
(dp9115
sI109650
(dp9116
sI109651
(dp9117
sI109652
(dp9118
sI109653
(dp9119
sI109654
(dp9120
sI109655
(dp9121
sI109656
(dp9122
sI109657
(dp9123
sI109658
(dp9124
sI109659
(dp9125
sI109660
(dp9126
sI109661
(dp9127
sI109662
(dp9128
sI109663
(dp9129
sI109664
(dp9130
sI109665
(dp9131
sI109666
(dp9132
sI109667
(dp9133
sI109668
(dp9134
sI109669
(dp9135
sI109670
(dp9136
sI109671
(dp9137
sI109672
(dp9138
sI109673
(dp9139
sI109674
(dp9140
sI109675
(dp9141
sI109676
(dp9142
sI109677
(dp9143
sI109678
(dp9144
sI109679
(dp9145
sI109680
(dp9146
sI109683
(dp9147
sI109684
(dp9148
sI109685
(dp9149
sI109686
(dp9150
sI109687
(dp9151
sI109688
(dp9152
sI109689
(dp9153
sI109690
(dp9154
sI109691
(dp9155
sI109692
(dp9156
sI109693
(dp9157
sI109694
(dp9158
sI109695
(dp9159
sI109696
(dp9160
sI109697
(dp9161
sI109698
(dp9162
sI109699
(dp9163
sI109700
(dp9164
sI109701
(dp9165
sI109702
(dp9166
sI109703
(dp9167
sI109704
(dp9168
sI109705
(dp9169
sI109706
(dp9170
sI109707
(dp9171
sI109708
(dp9172
sI109709
(dp9173
sI109710
(dp9174
sI109711
(dp9175
sI109712
(dp9176
sI109713
(dp9177
sI109714
(dp9178
sI109715
(dp9179
sI109716
(dp9180
sI109717
(dp9181
sI109718
(dp9182
sI109719
(dp9183
sI109720
(dp9184
sI109721
(dp9185
sI109722
(dp9186
sI109723
(dp9187
sI109724
(dp9188
sI109725
(dp9189
sI109726
(dp9190
sI109727
(dp9191
sI109728
(dp9192
sI109729
(dp9193
sI109730
(dp9194
sI109731
(dp9195
sI109732
(dp9196
sI109733
(dp9197
sI109734
(dp9198
sI109735
(dp9199
sI109736
(dp9200
sI109737
(dp9201
sI109738
(dp9202
sI109739
(dp9203
sI109740
(dp9204
sI109741
(dp9205
sI109742
(dp9206
sI109743
(dp9207
sI109744
(dp9208
sI109745
(dp9209
sI109746
(dp9210
sI109747
(dp9211
sI109748
(dp9212
sI109749
(dp9213
sI109750
(dp9214
sI109751
(dp9215
sI109752
(dp9216
sI109753
(dp9217
sI109754
(dp9218
sI109755
(dp9219
sI109756
(dp9220
sI109757
(dp9221
sI109758
(dp9222
sI109759
(dp9223
sI109760
(dp9224
sI109761
(dp9225
sI109762
(dp9226
sI109763
(dp9227
sI109764
(dp9228
sI109765
(dp9229
sI109766
(dp9230
sI109767
(dp9231
sI109768
(dp9232
sI109770
(dp9233
sI109771
(dp9234
sI109772
(dp9235
sI109773
(dp9236
sI109774
(dp9237
sI109775
(dp9238
sI109776
(dp9239
sI109777
(dp9240
sI109778
(dp9241
sI109779
(dp9242
sI109780
(dp9243
sI109781
(dp9244
sI109782
(dp9245
sI109783
(dp9246
sI109784
(dp9247
sI109785
(dp9248
sI109786
(dp9249
sI109787
(dp9250
sI109788
(dp9251
sI109789
(dp9252
sI109790
(dp9253
sI109791
(dp9254
sI109792
(dp9255
sI109793
(dp9256
sI109794
(dp9257
sI109795
(dp9258
sI109796
(dp9259
sI109797
(dp9260
sI109798
(dp9261
sI109799
(dp9262
sI109800
(dp9263
sI109801
(dp9264
sI109802
(dp9265
sI109803
(dp9266
sI109804
(dp9267
sI109805
(dp9268
sI109806
(dp9269
sI109807
(dp9270
sI109808
(dp9271
sI109809
(dp9272
sI109810
(dp9273
sI109811
(dp9274
sI109812
(dp9275
sI109813
(dp9276
sI109814
(dp9277
sI109815
(dp9278
sI109816
(dp9279
sI109817
(dp9280
sI109818
(dp9281
sI109819
(dp9282
sI109820
(dp9283
sI109821
(dp9284
sI109822
(dp9285
sI109823
(dp9286
sI109824
(dp9287
sI109825
(dp9288
sI109826
(dp9289
sI109827
(dp9290
sI109828
(dp9291
sI109829
(dp9292
sI109830
(dp9293
sI109831
(dp9294
sI109832
(dp9295
sI109833
(dp9296
sI109834
(dp9297
sI109835
(dp9298
sI109836
(dp9299
sI109837
(dp9300
sI109838
(dp9301
sI109839
(dp9302
sI109840
(dp9303
sI109841
(dp9304
sI109842
(dp9305
sI109843
(dp9306
sI109844
(dp9307
sI109845
(dp9308
sI109846
(dp9309
sI109847
(dp9310
sI109848
(dp9311
sI109849
(dp9312
sI109850
(dp9313
sI109851
(dp9314
sI109852
(dp9315
sI109853
(dp9316
sI109854
(dp9317
sI109855
(dp9318
sI109856
(dp9319
sI109857
(dp9320
sI109858
(dp9321
sI109859
(dp9322
sI109860
(dp9323
sI109861
(dp9324
sI109862
(dp9325
sI109863
(dp9326
sI109864
(dp9327
sI109865
(dp9328
sI109866
(dp9329
sI109867
(dp9330
sI109868
(dp9331
sI109869
(dp9332
sI109870
(dp9333
sI109872
(dp9334
sI109873
(dp9335
sI109874
(dp9336
sI109875
(dp9337
sI109876
(dp9338
sI109877
(dp9339
sI109878
(dp9340
sI109879
(dp9341
sI109880
(dp9342
sI109881
(dp9343
sI109882
(dp9344
sI109885
(dp9345
sI109886
(dp9346
sI109887
(dp9347
sI109888
(dp9348
sI109889
(dp9349
sI109890
(dp9350
sI109891
(dp9351
sI109892
(dp9352
sI109893
(dp9353
sI109894
(dp9354
sI109896
(dp9355
sI109897
(dp9356
sI109898
(dp9357
sI109899
(dp9358
sI109901
(dp9359
sI109902
(dp9360
sI109903
(dp9361
sI109904
(dp9362
sI109905
(dp9363
sI109906
(dp9364
sI109907
(dp9365
sI109908
(dp9366
sI109909
(dp9367
sI109910
(dp9368
sI109911
(dp9369
sI109912
(dp9370
sI109913
(dp9371
sI109914
(dp9372
sI109915
(dp9373
sI109916
(dp9374
sI109917
(dp9375
sI109918
(dp9376
sI109919
(dp9377
sI109920
(dp9378
sI109921
(dp9379
sI109922
(dp9380
sI109923
(dp9381
sI109924
(dp9382
sI109925
(dp9383
sI109926
(dp9384
sI109927
(dp9385
sI109928
(dp9386
sI109929
(dp9387
sI109930
(dp9388
sI109931
(dp9389
sI109932
(dp9390
sI109933
(dp9391
sI109934
(dp9392
sI109935
(dp9393
sI109936
(dp9394
sI109937
(dp9395
sI109938
(dp9396
sI109939
(dp9397
sI109940
(dp9398
sI109941
(dp9399
sI109942
(dp9400
sI109944
(dp9401
sI109945
(dp9402
sI109946
(dp9403
sI109947
(dp9404
sI109948
(dp9405
sI109949
(dp9406
sI109950
(dp9407
sI109951
(dp9408
sI109952
(dp9409
sI109953
(dp9410
sI109954
(dp9411
sI109955
(dp9412
sI109956
(dp9413
sI109958
(dp9414
sI109959
(dp9415
sI109960
(dp9416
sI109961
(dp9417
sI109962
(dp9418
sI109963
(dp9419
sI109964
(dp9420
sI109965
(dp9421
sI109966
(dp9422
sI109967
(dp9423
sI109968
(dp9424
sI109969
(dp9425
sI109970
(dp9426
sI109972
(dp9427
sI109973
(dp9428
sI109974
(dp9429
sI109975
(dp9430
sI109976
(dp9431
sI109977
(dp9432
sI109978
(dp9433
sI109979
(dp9434
sI109980
(dp9435
sI109981
(dp9436
sI109982
(dp9437
sI109983
(dp9438
sI109985
(dp9439
sI109986
(dp9440
sI109987
(dp9441
sI109989
(dp9442
sI109990
(dp9443
sI109991
(dp9444
sI109992
(dp9445
sI109993
(dp9446
sI109994
(dp9447
sI109995
(dp9448
sI109996
(dp9449
sI109997
(dp9450
sI110000
(dp9451
s.