(dp1
I104456
(dp2
sI106508
(dp3
sI104462
(dp4
sI104475
(dp5
sI107462
(dp6
sI104486
(dp7
sI104488
(dp8
sI106537
(dp9
sI100400
(dp10
sI100401
(dp11
sI100402
(dp12
sI100403
(dp13
sI100404
(dp14
sI100405
(dp15
sI100406
(dp16
sI100412
(dp17
sI108605
(dp18
sI106578
(dp19
sI106579
(dp20
sI102489
(dp21
sI108218
(dp22
sI108221
(dp23
sI100466
(dp24
sI106174
(dp25
sI102518
(dp26
sI104577
(dp27
sI104581
(dp28
sI108225
(dp29
sI106633
(dp30
sI100490
(dp31
sI102545
(dp32
sI104594
(dp33
sI106651
(dp34
sI100508
(dp35
sI100509
(dp36
sI100510
(dp37
sI100511
(dp38
sI100512
(dp39
sI100513
(dp40
sI100514
(dp41
sI100515
(dp42
sI100516
(dp43
sI100517
(dp44
sI100519
(dp45
sI100520
(dp46
sI104629
(dp47
sI100542
(dp48
sI106688
(dp49
sI106691
(dp50
sI106697
(dp51
sI109943
(dp52
sI104661
(dp53
sI108765
(dp54
sI102630
(dp55
sI108776
(dp56
sI106739
(dp57
sI104694
(dp58
sI108245
(dp59
sI106753
(dp60
sI108808
(dp61
sI106762
(dp62
sI106763
(dp63
sI106767
(dp64
sI106769
(dp65
sI100626
(dp66
sI100631
(dp67
sI104728
(dp68
sI100633
(dp69
sI109957
(dp70
sI106784
(dp71
sI108834
(dp72
sI106787
(dp73
sI100644
(dp74
sI104743
(dp75
sI104744
(dp76
sI104752
(dp77
sI102712
(dp78
sI104762
(dp79
sI104765
(dp80
sI107546
(dp81
sI108902
(dp82
sI108904
(dp83
sI109628
(dp84
sI104814
(dp85
sI100721
(dp86
sI106871
(dp87
sI104830
(dp88
sI104832
(dp89
sI108930
(dp90
sI100741
(dp91
sI100743
(dp92
sI104843
(dp93
sI109399
(dp94
sI108949
(dp95
sI104867
(dp96
sI100772
(dp97
sI108989
(dp98
sI109984
(dp99
sI104901
(dp100
sI100814
(dp101
sI104914
(dp102
sI104915
(dp103
sI104916
(dp104
sI104917
(dp105
sI104918
(dp106
sI104919
(dp107
sI104920
(dp108
sI109023
(dp109
sI104930
(dp110
sI100835
(dp111
sI106982
(dp112
sI104936
(dp113
sI104938
(dp114
sI104942
(dp115
sI104947
(dp116
sI104948
(dp117
sI109049
(dp118
sI104957
(dp119
sI109055
(dp120
sI107012
(dp121
sI109998
(dp122
sI100897
(dp123
sI100899
(dp124
sI100900
(dp125
sI105005
(dp126
sI105032
(dp127
sI107085
(dp128
sI105039
(dp129
sI105044
(dp130
sI105045
(dp131
sI100956
(dp132
sI100968
(dp133
sI109884
(dp134
sI105084
(dp135
sI107135
(dp136
sI108248
(dp137
sI101011
(dp138
sI109214
(dp139
sI101029
(dp140
sI105127
(dp141
sI100470
(dp142
sI107211
(dp143
sI107212
(dp144
sI107213
(dp145
sI107225
(dp146
sI107232
(dp147
sI109310
(dp148
sI101136
(dp149
sI101155
(dp150
sI101156
(dp151
sI105255
(dp152
sI107305
(dp153
sI107314
(dp154
sI107323
(dp155
sI107327
(dp156
sI107328
(dp157
sI105296
(dp158
sI105300
(dp159
sI107351
(dp160
sI109400
(dp161
sI109403
(dp162
sI105308
(dp163
sI101225
(dp164
sI101226
(dp165
sI101227
(dp166
sI106984
(dp167
sI101246
(dp168
sI107397
(dp169
sI105352
(dp170
sI105356
(dp171
sI105362
(dp172
sI105363
(dp173
sI100846
(dp174
sI105373
(dp175
sI106996
(dp176
sI109499
(dp177
sI105405
(dp178
sI105406
(dp179
sI105413
(dp180
sI101318
(dp181
sI107464
(dp182
sI101321
(dp183
sI105422
(dp184
sI103376
(dp185
sI103378
(dp186
sI105430
(dp187
sI107485
(dp188
sI107488
(dp189
sI101346
(dp190
sI105446
(dp191
sI105448
(dp192
sI107497
(dp193
sI107506
(dp194
sI107507
(dp195
sI107508
(dp196
sI107511
(dp197
sI109564
(dp198
sI105477
(dp199
sI101386
(dp200
sI101387
(dp201
sI101388
(dp202
sI101392
(dp203
sI105490
(dp204
sI101400
(dp205
sI109593
(dp206
sI101402
(dp207
sI107548
(dp208
sI101417
(dp209
sI103477
(dp210
sI103484
(dp211
sI103485
(dp212
sI100533
(dp213
sI109634
(dp214
sI103491
(dp215
sI101447
(dp216
sI103498
(dp217
sI103499
(dp218
sI101457
(dp219
sI103507
(dp220
sI109900
(dp221
sI105562
(dp222
sI105570
(dp223
sI105572
(dp224
sI105579
(dp225
sI101484
(dp226
sI109681
(dp227
sI109682
(dp228
sI101491
(dp229
sI108736
(dp230
sI107651
(dp231
sI107654
(dp232
sI107657
(dp233
sI103582
(dp234
sI103583
(dp235
sI103584
(dp236
sI103598
(dp237
sI101556
(dp238
sI101559
(dp239
sI107709
(dp240
sI107711
(dp241
sI107712
(dp242
sI107716
(dp243
sI101573
(dp244
sI109769
(dp245
sI103637
(dp246
sI101593
(dp247
sI107741
(dp248
sI106364
(dp249
sI107754
(dp250
sI107763
(dp251
sI103668
(dp252
sI107766
(dp253
sI107767
(dp254
sI107768
(dp255
sI107780
(dp256
sI105733
(dp257
sI105735
(dp258
sI105741
(dp259
sI105749
(dp260
sI101660
(dp261
sI101661
(dp262
sI101662
(dp263
sI101663
(dp264
sI101664
(dp265
sI101665
(dp266
sI101666
(dp267
sI101667
(dp268
sI101668
(dp269
sI101669
(dp270
sI101670
(dp271
sI101671
(dp272
sI101672
(dp273
sI101673
(dp274
sI101674
(dp275
sI101675
(dp276
sI101676
(dp277
sI103725
(dp278
sI105774
(dp279
sI101679
(dp280
sI101680
(dp281
sI107400
(dp282
sI101682
(dp283
sI101683
(dp284
sI101684
(dp285
sI101685
(dp286
sI101686
(dp287
sI101687
(dp288
sI101688
(dp289
sI101689
(dp290
sI101690
(dp291
sI101691
(dp292
sI101692
(dp293
sI101693
(dp294
sI101694
(dp295
sI101695
(dp296
sI101696
(dp297
sI101697
(dp298
sI101698
(dp299
sI101699
(dp300
sI101700
(dp301
sI101701
(dp302
sI101702
(dp303
sI101703
(dp304
sI101704
(dp305
sI101705
(dp306
sI101706
(dp307
sI101707
(dp308
sI101708
(dp309
sI101709
(dp310
sI101710
(dp311
sI101711
(dp312
sI101712
(dp313
sI101713
(dp314
sI101714
(dp315
sI101715
(dp316
sI101716
(dp317
sI101717
(dp318
sI101718
(dp319
sI107867
(dp320
sI106726
(dp321
sI105832
(dp322
sI105841
(dp323
sI105842
(dp324
sI109459
(dp325
sI105844
(dp326
sI105845
(dp327
sI105846
(dp328
sI105847
(dp329
sI105848
(dp330
sI105849
(dp331
sI105850
(dp332
sI105851
(dp333
sI105852
(dp334
sI105853
(dp335
sI103806
(dp336
sI105855
(dp337
sI105857
(dp338
sI105858
(dp339
sI105859
(dp340
sI105861
(dp341
sI105862
(dp342
sI107915
(dp343
sI105878
(dp344
sI107929
(dp345
sI107931
(dp346
sI107932
(dp347
sI105888
(dp348
sI109988
(dp349
sI105898
(dp350
sI105899
(dp351
sI105900
(dp352
sI107950
(dp353
sI109999
(dp354
sI105910
(dp355
sI105917
(dp356
sI103873
(dp357
sI103874
(dp358
sI103875
(dp359
sI106061
(dp360
sI105940
(dp361
sI107087
(dp362
sI103908
(dp363
sI101865
(dp364
sI101871
(dp365
sI101872
(dp366
sI108027
(dp367
sI101886
(dp368
sI101888
(dp369
sI103946
(dp370
sI106003
(dp371
sI106009
(dp372
sI106014
(dp373
sI101923
(dp374
sI108070
(dp375
sI108071
(dp376
sI101936
(dp377
sI108126
(dp378
sI103990
(dp379
sI106047
(dp380
sI106048
(dp381
sI106053
(dp382
sI106056
(dp383
sI106057
(dp384
sI106058
(dp385
sI106059
(dp386
sI106060
(dp387
sI101965
(dp388
sI106062
(dp389
sI106063
(dp390
sI106064
(dp391
sI106065
(dp392
sI106066
(dp393
sI106067
(dp394
sI106068
(dp395
sI106069
(dp396
sI106070
(dp397
sI106071
(dp398
sI106072
(dp399
sI106073
(dp400
sI106074
(dp401
sI106075
(dp402
sI106076
(dp403
sI106077
(dp404
sI106078
(dp405
sI106079
(dp406
sI106080
(dp407
sI106081
(dp408
sI106082
(dp409
sI106083
(dp410
sI106084
(dp411
sI106085
(dp412
sI106086
(dp413
sI106087
(dp414
sI106088
(dp415
sI106089
(dp416
sI106090
(dp417
sI106091
(dp418
sI106092
(dp419
sI106093
(dp420
sI106094
(dp421
sI106095
(dp422
sI106096
(dp423
sI106097
(dp424
sI106098
(dp425
sI108152
(dp426
sI107797
(dp427
sI108160
(dp428
sI106113
(dp429
sI109032
(dp430
sI106124
(dp431
sI104085
(dp432
sI106134
(dp433
sI106135
(dp434
sI106136
(dp435
sI106137
(dp436
sI106138
(dp437
sI106139
(dp438
sI106140
(dp439
sI106141
(dp440
sI106142
(dp441
sI106143
(dp442
sI106144
(dp443
sI104097
(dp444
sI106146
(dp445
sI106147
(dp446
sI106148
(dp447
sI106149
(dp448
sI106150
(dp449
sI106151
(dp450
sI106152
(dp451
sI106153
(dp452
sI106154
(dp453
sI106155
(dp454
sI106156
(dp455
sI106157
(dp456
sI106158
(dp457
sI106159
(dp458
sI106160
(dp459
sI106161
(dp460
sI106162
(dp461
sI106163
(dp462
sI106164
(dp463
sI106165
(dp464
sI106166
(dp465
sI106167
(dp466
sI106168
(dp467
sI106169
(dp468
sI106170
(dp469
sI106171
(dp470
sI106172
(dp471
sI106173
(dp472
sI104126
(dp473
sI106175
(dp474
sI106176
(dp475
sI106177
(dp476
sI106178
(dp477
sI106179
(dp478
sI106180
(dp479
sI106181
(dp480
sI106182
(dp481
sI108236
(dp482
sI108238
(dp483
sI108239
(dp484
sI108240
(dp485
sI108243
(dp486
sI107470
(dp487
sI108246
(dp488
sI108247
(dp489
sI104152
(dp490
sI107472
(dp491
sI108260
(dp492
sI108261
(dp493
sI109522
(dp494
sI106990
(dp495
sI101677
(dp496
sI101678
(dp497
sI108312
(dp498
sI109871
(dp499
sI106276
(dp500
sI108331
(dp501
sI106324
(dp502
sI106336
(dp503
sI100194
(dp504
sI109883
(dp505
sI106344
(dp506
sI108393
(dp507
sI102251
(dp508
sI106350
(dp509
sI104303
(dp510
sI100209
(dp511
sI100220
(dp512
sI100228
(dp513
sI102280
(dp514
sI103746
(dp515
sI100249
(dp516
sI100251
(dp517
sI100252
(dp518
sI100257
(dp519
sI108452
(dp520
sI108453
(dp521
sI109895
(dp522
sI102323
(dp523
sI106421
(dp524
sI102328
(dp525
sI108477
(dp526
sI102334
(dp527
sI108192
(dp528
sI102339
(dp529
sI102342
(dp530
sI106145
(dp531
sI105804
(dp532
sI102348
(dp533
sI108494
(dp534
sI100307
(dp535
sI104408
(dp536
sI105807
(dp537
sI102364
(dp538
sI102365
(dp539
sI102366
(dp540
sI102367
(dp541
sI108516
(dp542
sI106471
(dp543
sI106472
(dp544
sI101031
(dp545
sI107544
(dp546
sI100346
(dp547
s.