(dp1
I122880
(dp2
sI122881
(dp3
sI122882
(dp4
sI122883
(dp5
sI114692
(dp6
sI122885
(dp7
sI122886
(dp8
sI122887
(dp9
sI122888
(dp10
sI122889
(dp11
sI122890
(dp12
sI122891
(dp13
sI122892
(dp14
sI122893
(dp15
sI122894
(dp16
sI122895
(dp17
sI122896
(dp18
sI122897
(dp19
sI122898
(dp20
sI114707
(dp21
sI122900
(dp22
sI122901
(dp23
sI122902
(dp24
sI122903
(dp25
sI122904
(dp26
sI122884
(dp27
sI122906
(dp28
sI122907
(dp29
sI122908
(dp30
sI137188
(dp31
sI114719
(dp32
sI154900
(dp33
sI129712
(dp34
sI114723
(dp35
sI147492
(dp36
sI143366
(dp37
sI114726
(dp38
sI129713
(dp39
sI139304
(dp40
sI139305
(dp41
sI139306
(dp42
sI139307
(dp43
sI139309
(dp44
sI154505
(dp45
sI139311
(dp46
sI139312
(dp47
sI129715
(dp48
sI139316
(dp49
sI133346
(dp50
sI157023
(dp51
sI114750
(dp52
sI139328
(dp53
sI114755
(dp54
sI139335
(dp55
sI128210
(dp56
sI131084
(dp57
sI139339
(dp58
sI139340
(dp59
sI139341
(dp60
sI152488
(dp61
sI131086
(dp62
sI147542
(dp63
sI129721
(dp64
sI156031
(dp65
sI139356
(dp66
sI129722
(dp67
sI132508
(dp68
sI126461
(dp69
sI131088
(dp70
sI147554
(dp71
sI114789
(dp72
sI147558
(dp73
sI147561
(dp74
sI147562
(dp75
sI131181
(dp76
sI147566
(dp77
sI114799
(dp78
sI139376
(dp79
sI147569
(dp80
sI139260
(dp81
sI114803
(dp82
sI157187
(dp83
sI139381
(dp84
sI123847
(dp85
sI140214
(dp86
sI155769
(dp87
sI155770
(dp88
sI129727
(dp89
sI155772
(dp90
sI123005
(dp91
sI114817
(dp92
sI114819
(dp93
sI114820
(dp94
sI114821
(dp95
sI114822
(dp96
sI114823
(dp97
sI114824
(dp98
sI123017
(dp99
sI123018
(dp100
sI123019
(dp101
sI123020
(dp102
sI123021
(dp103
sI123022
(dp104
sI123023
(dp105
sI156799
(dp106
sI123025
(dp107
sI123026
(dp108
sI129731
(dp109
sI152763
(dp110
sI157019
(dp111
sI122905
(dp112
sI129031
(dp113
sI136664
(dp114
sI123035
(dp115
sI123036
(dp116
sI139421
(dp117
sI129733
(dp118
sI123040
(dp119
sI136560
(dp120
sI156227
(dp121
sI141956
(dp122
sI145512
(dp123
sI139431
(dp124
sI139432
(dp125
sI155817
(dp126
sI137046
(dp127
sI139435
(dp128
sI139436
(dp129
sI136555
(dp130
sI139438
(dp131
sI139439
(dp132
sI155125
(dp133
sI139442
(dp134
sI139443
(dp135
sI155828
(dp136
sI136194
(dp137
sI129032
(dp138
sI139447
(dp139
sI139449
(dp140
sI153037
(dp141
sI131259
(dp142
sI131260
(dp143
sI131261
(dp144
sI131263
(dp145
sI131264
(dp146
sI131265
(dp147
sI131267
(dp148
sI131268
(dp149
sI131269
(dp150
sI131270
(dp151
sI131271
(dp152
sI131272
(dp153
sI131273
(dp154
sI123082
(dp155
sI139467
(dp156
sI139468
(dp157
sI128099
(dp158
sI136568
(dp159
sI147491
(dp160
sI155862
(dp161
sI155493
(dp162
sI131289
(dp163
sI131293
(dp164
sI136719
(dp165
sI131296
(dp166
sI131298
(dp167
sI152955
(dp168
sI156039
(dp169
sI147686
(dp170
sI154321
(dp171
sI152956
(dp172
sI148285
(dp173
sI159469
(dp174
sI131309
(dp175
sI131314
(dp176
sI142035
(dp177
sI152595
(dp178
sI131762
(dp179
sI123136
(dp180
sI123137
(dp181
sI151749
(dp182
sI139393
(dp183
sI123142
(dp184
sI152494
(dp185
sI155912
(dp186
sI155913
(dp187
sI142039
(dp188
sI123149
(dp189
sI128645
(dp190
sI123151
(dp191
sI129752
(dp192
sI135410
(dp193
sI131347
(dp194
sI139540
(dp195
sI139541
(dp196
sI131351
(dp197
sI128388
(dp198
sI128536
(dp199
sI158426
(dp200
sI155934
(dp201
sI128389
(dp202
sI114977
(dp203
sI152720
(dp204
sI154331
(dp205
sI114981
(dp206
sI128391
(dp207
sI140102
(dp208
sI128392
(dp209
sI127945
(dp210
sI159795
(dp211
sI156851
(dp212
sI128393
(dp213
sI128218
(dp214
sI131387
(dp215
sI131388
(dp216
sI128394
(dp217
sI131390
(dp218
sI131391
(dp219
sI137047
(dp220
sI154336
(dp221
sI128395
(dp222
sI154337
(dp223
sI128396
(dp224
sI159799
(dp225
sI155980
(dp226
sI123213
(dp227
sI123215
(dp228
sI123217
(dp229
sI123218
(dp230
sI123219
(dp231
sI128398
(dp232
sI159801
(dp233
sI137357
(dp234
sI128399
(dp235
sI139615
(dp236
sI128400
(dp237
sI156002
(dp238
sI145132
(dp239
sI136403
(dp240
sI128401
(dp241
sI154287
(dp242
sI143723
(dp243
sI128402
(dp244
sI153043
(dp245
sI131439
(dp246
sI123248
(dp247
sI131441
(dp248
sI128403
(dp249
sI131444
(dp250
sI129769
(dp251
sI128404
(dp252
sI132910
(dp253
sI139643
(dp254
sI158132
(dp255
sI128405
(dp256
sI156033
(dp257
sI136404
(dp258
sI128406
(dp259
sI156038
(dp260
sI123271
(dp261
sI132503
(dp262
sI123277
(dp263
sI123278
(dp264
sI123281
(dp265
sI128221
(dp266
sI131478
(dp267
sI128409
(dp268
sI137223
(dp269
sI128410
(dp270
sI131486
(dp271
sI159743
(dp272
sI156064
(dp273
sI131489
(dp274
sI158270
(dp275
sI143727
(dp276
sI123304
(dp277
sI128291
(dp278
sI131498
(dp279
sI138075
(dp280
sI128222
(dp281
sI115122
(dp282
sI115123
(dp283
sI156084
(dp284
sI131509
(dp285
sI137224
(dp286
sI139705
(dp287
sI136722
(dp288
sI115132
(dp289
sI139709
(dp290
sI139710
(dp291
sI129781
(dp292
sI159819
(dp293
sI147908
(dp294
sI129782
(dp295
sI115142
(dp296
sI131528
(dp297
sI115145
(dp298
sI115146
(dp299
sI129783
(dp300
sI156108
(dp301
sI115149
(dp302
sI156111
(dp303
sI115153
(dp304
sI156114
(dp305
sI115155
(dp306
sI137225
(dp307
sI137048
(dp308
sI123351
(dp309
sI131545
(dp310
sI131546
(dp311
sI139739
(dp312
sI139740
(dp313
sI146375
(dp314
sI128421
(dp315
sI129042
(dp316
sI131555
(dp317
sI152594
(dp318
sI131560
(dp319
sI131561
(dp320
sI139757
(dp321
sI155791
(dp322
sI139761
(dp323
sI156147
(dp324
sI144864
(dp325
sI148623
(dp326
sI139771
(dp327
sI155270
(dp328
sI129043
(dp329
sI137347
(dp330
sI132524
(dp331
sI136721
(dp332
sI131596
(dp333
sI147982
(dp334
sI131603
(dp335
sI139797
(dp336
sI131607
(dp337
sI139801
(dp338
sI131610
(dp339
sI137069
(dp340
sI115228
(dp341
sI156189
(dp342
sI129044
(dp343
sI147999
(dp344
sI131616
(dp345
sI112048
(dp346
sI131619
(dp347
sI131621
(dp348
sI123431
(dp349
sI147548
(dp350
sI131627
(dp351
sI155925
(dp352
sI131630
(dp353
sI131631
(dp354
sI144866
(dp355
sI156210
(dp356
sI152504
(dp357
sI155742
(dp358
sI133897
(dp359
sI123449
(dp360
sI135263
(dp361
sI129045
(dp362
sI148029
(dp363
sI137376
(dp364
sI142957
(dp365
sI139840
(dp366
sI156226
(dp367
sI133899
(dp368
sI131652
(dp369
sI156229
(dp370
sI131654
(dp371
sI131655
(dp372
sI131656
(dp373
sI131657
(dp374
sI131658
(dp375
sI139851
(dp376
sI148044
(dp377
sI155746
(dp378
sI152505
(dp379
sI145505
(dp380
sI148052
(dp381
sI132537
(dp382
sI123480
(dp383
sI123481
(dp384
sI129046
(dp385
sI133903
(dp386
sI155138
(dp387
sI144869
(dp388
sI139872
(dp389
sI148069
(dp390
sI148071
(dp391
sI131690
(dp392
sI123499
(dp393
sI131692
(dp394
sI131693
(dp395
sI115310
(dp396
sI115311
(dp397
sI115312
(dp398
sI115313
(dp399
sI115314
(dp400
sI115315
(dp401
sI115316
(dp402
sI115317
(dp403
sI115318
(dp404
sI115319
(dp405
sI115320
(dp406
sI115321
(dp407
sI115322
(dp408
sI115323
(dp409
sI115324
(dp410
sI115325
(dp411
sI115326
(dp412
sI115327
(dp413
sI115328
(dp414
sI115329
(dp415
sI115330
(dp416
sI115331
(dp417
sI115332
(dp418
sI115333
(dp419
sI115334
(dp420
sI115335
(dp421
sI115336
(dp422
sI115337
(dp423
sI115338
(dp424
sI115339
(dp425
sI115340
(dp426
sI115341
(dp427
sI115342
(dp428
sI115343
(dp429
sI115344
(dp430
sI115345
(dp431
sI115346
(dp432
sI115347
(dp433
sI115348
(dp434
sI115349
(dp435
sI115350
(dp436
sI115351
(dp437
sI115352
(dp438
sI115353
(dp439
sI115354
(dp440
sI115355
(dp441
sI115356
(dp442
sI115357
(dp443
sI115358
(dp444
sI115359
(dp445
sI115360
(dp446
sI115361
(dp447
sI115362
(dp448
sI115363
(dp449
sI115364
(dp450
sI115365
(dp451
sI115366
(dp452
sI115367
(dp453
sI115368
(dp454
sI115369
(dp455
sI115370
(dp456
sI115371
(dp457
sI115372
(dp458
sI115373
(dp459
sI115374
(dp460
sI115375
(dp461
sI115376
(dp462
sI115377
(dp463
sI115378
(dp464
sI115379
(dp465
sI115380
(dp466
sI115381
(dp467
sI115382
(dp468
sI115383
(dp469
sI115384
(dp470
sI115385
(dp471
sI115386
(dp472
sI115387
(dp473
sI115388
(dp474
sI115389
(dp475
sI115390
(dp476
sI115391
(dp477
sI115392
(dp478
sI150767
(dp479
sI153035
(dp480
sI133921
(dp481
sI153036
(dp482
sI129139
(dp483
sI131791
(dp484
sI148176
(dp485
sI148177
(dp486
sI148178
(dp487
sI148179
(dp488
sI137377
(dp489
sI139989
(dp490
sI148182
(dp491
sI153039
(dp492
sI131804
(dp493
sI131807
(dp494
sI131810
(dp495
sI155771
(dp496
sI115430
(dp497
sI131816
(dp498
sI123627
(dp499
sI123628
(dp500
sI123629
(dp501
sI139389
(dp502
sI131824
(dp503
sI151692
(dp504
sI149294
(dp505
sI158054
(dp506
sI148215
(dp507
sI140101
(dp508
sI123641
(dp509
sI115450
(dp510
sI127103
(dp511
sI129597
(dp512
sI115454
(dp513
sI148223
(dp514
sI148224
(dp515
sI148225
(dp516
sI115458
(dp517
sI148227
(dp518
sI115460
(dp519
sI152511
(dp520
sI115462
(dp521
sI115463
(dp522
sI115464
(dp523
sI150183
(dp524
sI115466
(dp525
sI115467
(dp526
sI115468
(dp527
sI115469
(dp528
sI115470
(dp529
sI115471
(dp530
sI115472
(dp531
sI115473
(dp532
sI115474
(dp533
sI115475
(dp534
sI115476
(dp535
sI115477
(dp536
sI139418
(dp537
sI128234
(dp538
sI131866
(dp539
sI148251
(dp540
sI139397
(dp541
sI144874
(dp542
sI131874
(dp543
sI123014
(dp544
sI156454
(dp545
sI157695
(dp546
sI123015
(dp547
sI155513
(dp548
sI123016
(dp549
sI156877
(dp550
sI123700
(dp551
sI144862
(dp552
sI140090
(dp553
sI115515
(dp554
sI131901
(dp555
sI131902
(dp556
sI131903
(dp557
sI131904
(dp558
sI115521
(dp559
sI131906
(dp560
sI127115
(dp561
sI131908
(dp562
sI131909
(dp563
sI115526
(dp564
sI115527
(dp565
sI115528
(dp566
sI140105
(dp567
sI140106
(dp568
sI131915
(dp569
sI140109
(dp570
sI140110
(dp571
sI140111
(dp572
sI140112
(dp573
sI140113
(dp574
sI115538
(dp575
sI144867
(dp576
sI140116
(dp577
sI140117
(dp578
sI140119
(dp579
sI140120
(dp580
sI123737
(dp581
sI140122
(dp582
sI140123
(dp583
sI144876
(dp584
sI131935
(dp585
sI123746
(dp586
sI123747
(dp587
sI157697
(dp588
sI115557
(dp589
sI131943
(dp590
sI136979
(dp591
sI115562
(dp592
sI144871
(dp593
sI123756
(dp594
sI131949
(dp595
sI115568
(dp596
sI144872
(dp597
sI156530
(dp598
sI123764
(dp599
sI131958
(dp600
sI144873
(dp601
sI123770
(dp602
sI145998
(dp603
sI121145
(dp604
sI123776
(dp605
sI123777
(dp606
sI123778
(dp607
sI123779
(dp608
sI123780
(dp609
sI148357
(dp610
sI129056
(dp611
sI136694
(dp612
sI152397
(dp613
sI131982
(dp614
sI144877
(dp615
sI123792
(dp616
sI148372
(dp617
sI144878
(dp618
sI148374
(dp619
sI148375
(dp620
sI156569
(dp621
sI131994
(dp622
sI144879
(dp623
sI123805
(dp624
sI115616
(dp625
sI144880
(dp626
sI140194
(dp627
sI155803
(dp628
sI142150
(dp629
sI128497
(dp630
sI139420
(dp631
sI156588
(dp632
sI128498
(dp633
sI132014
(dp634
sI130423
(dp635
sI140209
(dp636
sI155917
(dp637
sI144883
(dp638
sI115638
(dp639
sI154972
(dp640
sI144884
(dp641
sI152517
(dp642
sI144875
(dp643
sI150346
(dp644
sI123838
(dp645
sI123839
(dp646
sI111519
(dp647
sI142616
(dp648
sI140228
(dp649
sI115653
(dp650
sI115655
(dp651
sI127995
(dp652
sI148153
(dp653
sI157175
(dp654
sI155257
(dp655
sI115662
(dp656
sI144882
(dp657
sI112120
(dp658
sI140242
(dp659
sI123860
(dp660
sI112121
(dp661
sI115672
(dp662
sI115675
(dp663
sI140252
(dp664
sI140253
(dp665
sI155813
(dp666
sI156641
(dp667
sI115683
(dp668
sI123877
(dp669
sI115686
(dp670
sI123879
(dp671
sI128241
(dp672
sI123885
(dp673
sI123886
(dp674
sI156655
(dp675
sI144881
(dp676
sI136702
(dp677
sI115704
(dp678
sI157702
(dp679
sI136703
(dp680
sI158549
(dp681
sI136704
(dp682
sI150610
(dp683
sI140294
(dp684
sI136705
(dp685
sI138335
(dp686
sI115723
(dp687
sI115725
(dp688
sI156686
(dp689
sI139437
(dp690
sI123920
(dp691
sI123921
(dp692
sI123922
(dp693
sI123923
(dp694
sI123924
(dp695
sI156693
(dp696
sI140312
(dp697
sI136708
(dp698
sI140107
(dp699
sI128517
(dp700
sI155521
(dp701
sI156705
(dp702
sI156583
(dp703
sI115747
(dp704
sI123940
(dp705
sI123941
(dp706
sI123942
(dp707
sI136712
(dp708
sI123959
(dp709
sI123960
(dp710
sI123962
(dp711
sI115773
(dp712
sI123967
(dp713
sI123968
(dp714
sI123970
(dp715
sI147638
(dp716
sI156742
(dp717
sI146273
(dp718
sI128524
(dp719
sI115788
(dp720
sI146274
(dp721
sI148558
(dp722
sI136717
(dp723
sI132177
(dp724
sI147612
(dp725
sI136718
(dp726
sI148566
(dp727
sI135361
(dp728
sI146276
(dp729
sI139212
(dp730
sI120335
(dp731
sI115806
(dp732
sI146277
(dp733
sI136720
(dp734
sI136725
(dp735
sI148582
(dp736
sI128529
(dp737
sI144885
(dp738
sI120338
(dp739
sI115822
(dp740
sI128531
(dp741
sI151742
(dp742
sI156392
(dp743
sI128532
(dp744
sI139455
(dp745
sI144340
(dp746
sI129337
(dp747
sI124031
(dp748
sI148608
(dp749
sI124033
(dp750
sI124034
(dp751
sI124035
(dp752
sI124036
(dp753
sI124037
(dp754
sI124038
(dp755
sI124039
(dp756
sI148616
(dp757
sI124041
(dp758
sI124042
(dp759
sI124043
(dp760
sI124044
(dp761
sI124045
(dp762
sI124046
(dp763
sI124047
(dp764
sI124048
(dp765
sI124049
(dp766
sI124050
(dp767
sI124051
(dp768
sI137380
(dp769
sI128537
(dp770
sI155525
(dp771
sI124057
(dp772
sI128538
(dp773
sI139461
(dp774
sI115872
(dp775
sI132258
(dp776
sI128539
(dp777
sI132261
(dp778
sI150385
(dp779
sI124072
(dp780
sI128540
(dp781
sI151751
(dp782
sI115884
(dp783
sI132269
(dp784
sI132270
(dp785
sI128541
(dp786
sI147656
(dp787
sI146291
(dp788
sI132276
(dp789
sI128542
(dp790
sI155526
(dp791
sI115897
(dp792
sI128543
(dp793
sI159946
(dp794
sI132287
(dp795
sI128544
(dp796
sI159947
(dp797
sI137053
(dp798
sI136159
(dp799
sI128545
(dp800
sI115913
(dp801
sI132299
(dp802
sI139378
(dp803
sI128546
(dp804
sI156878
(dp805
sI159949
(dp806
sI128547
(dp807
sI154358
(dp808
sI135374
(dp809
sI154489
(dp810
sI128548
(dp811
sI135375
(dp812
sI133915
(dp813
sI128549
(dp814
sI135376
(dp815
sI149492
(dp816
sI128550
(dp817
sI159953
(dp818
sI140521
(dp819
sI156748
(dp820
sI155255
(dp821
sI124140
(dp822
sI156534
(dp823
sI136706
(dp824
sI132340
(dp825
sI148725
(dp826
sI156639
(dp827
sI136726
(dp828
sI154495
(dp829
sI124560
(dp830
sI153130
(dp831
sI124158
(dp832
sI159957
(dp833
sI140100
(dp834
sI120363
(dp835
sI159958
(dp836
sI138889
(dp837
sI140844
(dp838
sI155923
(dp839
sI159960
(dp840
sI124181
(dp841
sI136980
(dp842
sI115993
(dp843
sI120367
(dp844
sI156956
(dp845
sI154501
(dp846
sI124194
(dp847
sI159963
(dp848
sI140580
(dp849
sI132391
(dp850
sI156973
(dp851
sI155821
(dp852
sI139485
(dp853
sI124208
(dp854
sI124209
(dp855
sI135617
(dp856
sI124211
(dp857
sI132404
(dp858
sI124213
(dp859
sI124214
(dp860
sI124215
(dp861
sI124216
(dp862
sI140601
(dp863
sI154506
(dp864
sI156992
(dp865
sI124225
(dp866
sI124227
(dp867
sI138891
(dp868
sI147568
(dp869
sI157567
(dp870
sI157002
(dp871
sI144951
(dp872
sI136709
(dp873
sI150413
(dp874
sI136982
(dp875
sI123524
(dp876
sI138126
(dp877
sI134682
(dp878
sI157018
(dp879
sI124251
(dp880
sI157020
(dp881
sI157021
(dp882
sI157022
(dp883
sI136072
(dp884
sI157024
(dp885
sI157025
(dp886
sI157026
(dp887
sI155259
(dp888
sI157028
(dp889
sI132454
(dp890
sI136710
(dp891
sI124267
(dp892
sI124269
(dp893
sI124270
(dp894
sI124271
(dp895
sI124272
(dp896
sI124273
(dp897
sI157042
(dp898
sI154515
(dp899
sI139486
(dp900
sI157049
(dp901
sI135402
(dp902
sI140670
(dp903
sI157055
(dp904
sI149293
(dp905
sI157061
(dp906
sI151788
(dp907
sI124298
(dp908
sI132493
(dp909
sI147472
(dp910
sI157075
(dp911
sI124308
(dp912
sI135406
(dp913
sI124311
(dp914
sI152712
(dp915
sI132506
(dp916
sI124315
(dp917
sI124316
(dp918
sI124317
(dp919
sI157086
(dp920
sI124319
(dp921
sI124321
(dp922
sI124323
(dp923
sI124324
(dp924
sI135409
(dp925
sI132523
(dp926
sI116140
(dp927
sI132525
(dp928
sI132526
(dp929
sI132527
(dp930
sI132528
(dp931
sI124337
(dp932
sI132530
(dp933
sI132531
(dp934
sI132532
(dp935
sI132533
(dp936
sI132534
(dp937
sI132535
(dp938
sI132536
(dp939
sI127220
(dp940
sI132538
(dp941
sI132539
(dp942
sI132540
(dp943
sI150669
(dp944
sI135413
(dp945
sI128162
(dp946
sI136713
(dp947
sI157130
(dp948
sI116173
(dp949
sI159273
(dp950
sI116175
(dp951
sI128530
(dp952
sI140758
(dp953
sI159993
(dp954
sI148955
(dp955
sI157148
(dp956
sI148958
(dp957
sI136714
(dp958
sI120401
(dp959
sI127228
(dp960
sI120402
(dp961
sI140783
(dp962
sI157171
(dp963
sI157173
(dp964
sI148982
(dp965
sI148983
(dp966
sI157176
(dp967
sI157177
(dp968
sI157178
(dp969
sI157179
(dp970
sI148988
(dp971
sI157181
(dp972
sI157182
(dp973
sI157183
(dp974
sI157184
(dp975
sI157186
(dp976
sI116227
(dp977
sI132613
(dp978
sI157190
(dp979
sI135425
(dp980
sI132616
(dp981
sI156083
(dp982
sI145508
(dp983
sI140816
(dp984
sI128600
(dp985
sI150010
(dp986
sI135427
(dp987
sI154494
(dp988
sI155265
(dp989
sI124441
(dp990
sI154543
(dp991
sI140828
(dp992
sI140829
(dp993
sI136716
(dp994
sI140831
(dp995
sI140832
(dp996
sI157218
(dp997
sI157219
(dp998
sI140836
(dp999
sI140837
(dp1000
sI132646
(dp1001
sI140839
(dp1002
sI140840
(dp1003
sI140841
(dp1004
sI140842
(dp1005
sI128533
(dp1006
sI140845
(dp1007
sI132654
(dp1008
sI120413
(dp1009
sI134952
(dp1010
sI140849
(dp1011
sI138899
(dp1012
sI132661
(dp1013
sI132665
(dp1014
sI157242
(dp1015
sI132667
(dp1016
sI157244
(dp1017
sI139445
(dp1018
sI155915
(dp1019
sI124485
(dp1020
sI146712
(dp1021
sI124513
(dp1022
sI149811
(dp1023
sI116298
(dp1024
sI124492
(dp1025
sI124493
(dp1026
sI152539
(dp1027
sI124495
(dp1028
sI149073
(dp1029
sI124498
(dp1030
sI124499
(dp1031
sI124500
(dp1032
sI124501
(dp1033
sI124502
(dp1034
sI124503
(dp1035
sI124504
(dp1036
sI124505
(dp1037
sI124506
(dp1038
sI124507
(dp1039
sI124508
(dp1040
sI124509
(dp1041
sI124510
(dp1042
sI124511
(dp1043
sI124512
(dp1044
sI116321
(dp1045
sI124514
(dp1046
sI124515
(dp1047
sI124516
(dp1048
sI124517
(dp1049
sI124518
(dp1050
sI124519
(dp1051
sI124520
(dp1052
sI124521
(dp1053
sI124522
(dp1054
sI124523
(dp1055
sI124524
(dp1056
sI124525
(dp1057
sI124526
(dp1058
sI124527
(dp1059
sI124528
(dp1060
sI124529
(dp1061
sI124530
(dp1062
sI124531
(dp1063
sI124532
(dp1064
sI124533
(dp1065
sI124534
(dp1066
sI124535
(dp1067
sI124536
(dp1068
sI124537
(dp1069
sI124539
(dp1070
sI124540
(dp1071
sI124541
(dp1072
sI124542
(dp1073
sI124543
(dp1074
sI124544
(dp1075
sI124545
(dp1076
sI124546
(dp1077
sI124547
(dp1078
sI124548
(dp1079
sI116357
(dp1080
sI124550
(dp1081
sI124551
(dp1082
sI124552
(dp1083
sI124553
(dp1084
sI116362
(dp1085
sI124556
(dp1086
sI116365
(dp1087
sI124558
(dp1088
sI124559
(dp1089
sI116368
(dp1090
sI124561
(dp1091
sI124562
(dp1092
sI124563
(dp1093
sI124564
(dp1094
sI124565
(dp1095
sI124566
(dp1096
sI124567
(dp1097
sI124568
(dp1098
sI124569
(dp1099
sI124570
(dp1100
sI124571
(dp1101
sI124572
(dp1102
sI124573
(dp1103
sI124574
(dp1104
sI124575
(dp1105
sI116384
(dp1106
sI124577
(dp1107
sI124578
(dp1108
sI124579
(dp1109
sI124580
(dp1110
sI124581
(dp1111
sI124582
(dp1112
sI124583
(dp1113
sI116392
(dp1114
sI124585
(dp1115
sI124586
(dp1116
sI124587
(dp1117
sI124588
(dp1118
sI124589
(dp1119
sI124590
(dp1120
sI124591
(dp1121
sI124592
(dp1122
sI124593
(dp1123
sI124594
(dp1124
sI124595
(dp1125
sI124596
(dp1126
sI124597
(dp1127
sI124598
(dp1128
sI124599
(dp1129
sI124600
(dp1130
sI124601
(dp1131
sI124602
(dp1132
sI124603
(dp1133
sI124604
(dp1134
sI124605
(dp1135
sI124607
(dp1136
sI124608
(dp1137
sI116419
(dp1138
sI132804
(dp1139
sI116428
(dp1140
sI158335
(dp1141
sI154569
(dp1142
sI124626
(dp1143
sI154574
(dp1144
sI149208
(dp1145
sI149210
(dp1146
sI157405
(dp1147
sI149215
(dp1148
sI124641
(dp1149
sI124642
(dp1150
sI149115
(dp1151
sI121809
(dp1152
sI136828
(dp1153
sI148077
(dp1154
sI135476
(dp1155
sI132733
(dp1156
sI136723
(dp1157
sI144450
(dp1158
sI146387
(dp1159
sI148180
(dp1160
sI157429
(dp1161
sI157434
(dp1162
sI124668
(dp1163
sI124670
(dp1164
sI156206
(dp1165
sI134329
(dp1166
sI124675
(dp1167
sI157444
(dp1168
sI127860
(dp1169
sI155273
(dp1170
sI156637
(dp1171
sI137080
(dp1172
sI157030
(dp1173
sI136724
(dp1174
sI124687
(dp1175
sI116496
(dp1176
sI134711
(dp1177
sI130723
(dp1178
sI149270
(dp1179
sI149271
(dp1180
sI149272
(dp1181
sI149273
(dp1182
sI149274
(dp1183
sI149276
(dp1184
sI149277
(dp1185
sI116510
(dp1186
sI124549
(dp1187
sI157472
(dp1188
sI152546
(dp1189
sI150491
(dp1190
sI155274
(dp1191
sI151857
(dp1192
sI132904
(dp1193
sI132905
(dp1194
sI132906
(dp1195
sI116523
(dp1196
sI116524
(dp1197
sI116525
(dp1198
sI116526
(dp1199
sI116527
(dp1200
sI116528
(dp1201
sI116529
(dp1202
sI132914
(dp1203
sI132915
(dp1204
sI132916
(dp1205
sI132917
(dp1206
sI132918
(dp1207
sI132919
(dp1208
sI132920
(dp1209
sI124729
(dp1210
sI146399
(dp1211
sI149308
(dp1212
sI124554
(dp1213
sI133425
(dp1214
sI135477
(dp1215
sI116544
(dp1216
sI132929
(dp1217
sI132931
(dp1218
sI132932
(dp1219
sI132933
(dp1220
sI132934
(dp1221
sI132935
(dp1222
sI124744
(dp1223
sI120460
(dp1224
sI132938
(dp1225
sI132939
(dp1226
sI132940
(dp1227
sI132941
(dp1228
sI132942
(dp1229
sI124557
(dp1230
sI124752
(dp1231
sI116561
(dp1232
sI116562
(dp1233
sI124755
(dp1234
sI150490
(dp1235
sI124757
(dp1236
sI124759
(dp1237
sI134265
(dp1238
sI157529
(dp1239
sI157530
(dp1240
sI157531
(dp1241
sI157532
(dp1242
sI157533
(dp1243
sI157534
(dp1244
sI157535
(dp1245
sI116577
(dp1246
sI150723
(dp1247
sI124771
(dp1248
sI149349
(dp1249
sI157542
(dp1250
sI153233
(dp1251
sI136727
(dp1252
sI153234
(dp1253
sI139949
(dp1254
sI131389
(dp1255
sI128271
(dp1256
sI116593
(dp1257
sI153235
(dp1258
sI149365
(dp1259
sI124792
(dp1260
sI153236
(dp1261
sI149370
(dp1262
sI135487
(dp1263
sI147053
(dp1264
sI140949
(dp1265
sI135488
(dp1266
sI138219
(dp1267
sI153238
(dp1268
sI127999
(dp1269
sI157577
(dp1270
sI153239
(dp1271
sI116620
(dp1272
sI116621
(dp1273
sI116622
(dp1274
sI116623
(dp1275
sI116624
(dp1276
sI116625
(dp1277
sI131395
(dp1278
sI157589
(dp1279
sI124824
(dp1280
sI124826
(dp1281
sI124827
(dp1282
sI124828
(dp1283
sI124829
(dp1284
sI154608
(dp1285
sI124835
(dp1286
sI124836
(dp1287
sI124837
(dp1288
sI128000
(dp1289
sI124839
(dp1290
sI134647
(dp1291
sI149148
(dp1292
sI139457
(dp1293
sI124849
(dp1294
sI124851
(dp1295
sI124852
(dp1296
sI137058
(dp1297
sI149435
(dp1298
sI124861
(dp1299
sI124863
(dp1300
sI157632
(dp1301
sI124576
(dp1302
sI149278
(dp1303
sI134275
(dp1304
sI157637
(dp1305
sI157638
(dp1306
sI153249
(dp1307
sI124872
(dp1308
sI156775
(dp1309
sI149454
(dp1310
sI133071
(dp1311
sI124881
(dp1312
sI124882
(dp1313
sI124883
(dp1314
sI124884
(dp1315
sI137549
(dp1316
sI124889
(dp1317
sI155280
(dp1318
sI124892
(dp1319
sI136869
(dp1320
sI124897
(dp1321
sI134276
(dp1322
sI136870
(dp1323
sI137004
(dp1324
sI141288
(dp1325
sI137222
(dp1326
sI136871
(dp1327
sI124909
(dp1328
sI141295
(dp1329
sI124584
(dp1330
sI133108
(dp1331
sI157687
(dp1332
sI128384
(dp1333
sI157689
(dp1334
sI157690
(dp1335
sI157691
(dp1336
sI157692
(dp1337
sI124925
(dp1338
sI124926
(dp1339
sI124927
(dp1340
sI124928
(dp1341
sI149505
(dp1342
sI124930
(dp1343
sI124931
(dp1344
sI124932
(dp1345
sI124933
(dp1346
sI124934
(dp1347
sI149513
(dp1348
sI149514
(dp1349
sI124939
(dp1350
sI124940
(dp1351
sI149517
(dp1352
sI133137
(dp1353
sI140974
(dp1354
sI133142
(dp1355
sI135513
(dp1356
sI124952
(dp1357
sI133146
(dp1358
sI124957
(dp1359
sI134149
(dp1360
sI141344
(dp1361
sI149538
(dp1362
sI124963
(dp1363
sI157733
(dp1364
sI141350
(dp1365
sI141352
(dp1366
sI157737
(dp1367
sI124970
(dp1368
sI141358
(dp1369
sI149552
(dp1370
sI133173
(dp1371
sI124984
(dp1372
sI124985
(dp1373
sI136734
(dp1374
sI134279
(dp1375
sI132789
(dp1376
sI128278
(dp1377
sI142347
(dp1378
sI128694
(dp1379
sI133196
(dp1380
sI137059
(dp1381
sI138253
(dp1382
sI132792
(dp1383
sI143715
(dp1384
sI133204
(dp1385
sI145081
(dp1386
sI136735
(dp1387
sI143716
(dp1388
sI146447
(dp1389
sI137008
(dp1390
sI143718
(dp1391
sI141414
(dp1392
sI141415
(dp1393
sI139623
(dp1394
sI137332
(dp1395
sI147647
(dp1396
sI157373
(dp1397
sI155285
(dp1398
sI143720
(dp1399
sI135372
(dp1400
sI143721
(dp1401
sI153103
(dp1402
sI136895
(dp1403
sI143722
(dp1404
sI142072
(dp1405
sI144479
(dp1406
sI135531
(dp1407
sI134277
(dp1408
sI135532
(dp1409
sI149642
(dp1410
sI149643
(dp1411
sI149644
(dp1412
sI149645
(dp1413
sI155286
(dp1414
sI135533
(dp1415
sI155063
(dp1416
sI135534
(dp1417
sI128008
(dp1418
sI157849
(dp1419
sI135535
(dp1420
sI139460
(dp1421
sI137005
(dp1422
sI159741
(dp1423
sI135536
(dp1424
sI157902
(dp1425
sI144921
(dp1426
sI135537
(dp1427
sI133288
(dp1428
sI133292
(dp1429
sI135538
(dp1430
sI133294
(dp1431
sI153288
(dp1432
sI135539
(dp1433
sI125113
(dp1434
sI125114
(dp1435
sI153232
(dp1436
sI138375
(dp1437
sI137278
(dp1438
sI135541
(dp1439
sI149832
(dp1440
sI133313
(dp1441
sI145516
(dp1442
sI133318
(dp1443
sI141511
(dp1444
sI125128
(dp1445
sI125130
(dp1446
sI125133
(dp1447
sI125134
(dp1448
sI120525
(dp1449
sI141522
(dp1450
sI141523
(dp1451
sI141524
(dp1452
sI141525
(dp1453
sI141526
(dp1454
sI141527
(dp1455
sI141528
(dp1456
sI116954
(dp1457
sI116955
(dp1458
sI116956
(dp1459
sI116957
(dp1460
sI116958
(dp1461
sI116959
(dp1462
sI116960
(dp1463
sI116961
(dp1464
sI116962
(dp1465
sI137060
(dp1466
sI133349
(dp1467
sI125158
(dp1468
sI141545
(dp1469
sI125164
(dp1470
sI133357
(dp1471
sI141550
(dp1472
sI141555
(dp1473
sI135478
(dp1474
sI149750
(dp1475
sI149751
(dp1476
sI133368
(dp1477
sI125177
(dp1478
sI141563
(dp1479
sI125180
(dp1480
sI141565
(dp1481
sI149758
(dp1482
sI149759
(dp1483
sI149760
(dp1484
sI149761
(dp1485
sI149767
(dp1486
sI149768
(dp1487
sI149769
(dp1488
sI149770
(dp1489
sI153108
(dp1490
sI141583
(dp1491
sI130740
(dp1492
sI141589
(dp1493
sI149784
(dp1494
sI128558
(dp1495
sI133408
(dp1496
sI149793
(dp1497
sI141603
(dp1498
sI141610
(dp1499
sI141611
(dp1500
sI141612
(dp1501
sI149807
(dp1502
sI130741
(dp1503
sI138291
(dp1504
sI137006
(dp1505
sI149814
(dp1506
sI139263
(dp1507
sI155117
(dp1508
sI125250
(dp1509
sI139843
(dp1510
sI128168
(dp1511
sI144356
(dp1512
sI151948
(dp1513
sI153110
(dp1514
sI149838
(dp1515
sI132749
(dp1516
sI117072
(dp1517
sI153315
(dp1518
sI158036
(dp1519
sI147481
(dp1520
sI137289
(dp1521
sI158041
(dp1522
sI145517
(dp1523
sI142831
(dp1524
sI139199
(dp1525
sI141670
(dp1526
sI149292
(dp1527
sI120551
(dp1528
sI125292
(dp1529
sI156230
(dp1530
sI117108
(dp1531
sI151956
(dp1532
sI128834
(dp1533
sI133502
(dp1534
sI133503
(dp1535
sI133504
(dp1536
sI133505
(dp1537
sI133506
(dp1538
sI117123
(dp1539
sI133508
(dp1540
sI133509
(dp1541
sI148627
(dp1542
sI133511
(dp1543
sI133512
(dp1544
sI133513
(dp1545
sI133514
(dp1546
sI133515
(dp1547
sI133516
(dp1548
sI133517
(dp1549
sI133518
(dp1550
sI133519
(dp1551
sI133520
(dp1552
sI133521
(dp1553
sI133522
(dp1554
sI133523
(dp1555
sI133524
(dp1556
sI133525
(dp1557
sI133526
(dp1558
sI133527
(dp1559
sI133528
(dp1560
sI133529
(dp1561
sI133530
(dp1562
sI133531
(dp1563
sI133532
(dp1564
sI133533
(dp1565
sI117150
(dp1566
sI117151
(dp1567
sI133536
(dp1568
sI133538
(dp1569
sI133539
(dp1570
sI133540
(dp1571
sI141734
(dp1572
sI153329
(dp1573
sI117162
(dp1574
sI140838
(dp1575
sI137190
(dp1576
sI125367
(dp1577
sI125368
(dp1578
sI125369
(dp1579
sI125370
(dp1580
sI141755
(dp1581
sI144863
(dp1582
sI144446
(dp1583
sI151750
(dp1584
sI149295
(dp1585
sI155247
(dp1586
sI149955
(dp1587
sI117189
(dp1588
sI117190
(dp1589
sI117191
(dp1590
sI117192
(dp1591
sI117193
(dp1592
sI117194
(dp1593
sI117195
(dp1594
sI149964
(dp1595
sI149965
(dp1596
sI134222
(dp1597
sI149976
(dp1598
sI149296
(dp1599
sI154356
(dp1600
sI149987
(dp1601
sI125413
(dp1602
sI158183
(dp1603
sI136956
(dp1604
sI125421
(dp1605
sI145518
(dp1606
sI158194
(dp1607
sI141811
(dp1608
sI158062
(dp1609
sI139689
(dp1610
sI140295
(dp1611
sI137081
(dp1612
sI151752
(dp1613
sI133629
(dp1614
sI133630
(dp1615
sI151979
(dp1616
sI133640
(dp1617
sI133641
(dp1618
sI133642
(dp1619
sI138327
(dp1620
sI133647
(dp1621
sI158226
(dp1622
sI158227
(dp1623
sI157696
(dp1624
sI135599
(dp1625
sI133665
(dp1626
sI133666
(dp1627
sI128294
(dp1628
sI133668
(dp1629
sI133669
(dp1630
sI133670
(dp1631
sI123314
(dp1632
sI138333
(dp1633
sI125490
(dp1634
sI141875
(dp1635
sI159951
(dp1636
sI158266
(dp1637
sI134239
(dp1638
sI125500
(dp1639
sI117309
(dp1640
sI117310
(dp1641
sI117311
(dp1642
sI117312
(dp1643
sI117313
(dp1644
sI117314
(dp1645
sI117315
(dp1646
sI117316
(dp1647
sI117317
(dp1648
sI117318
(dp1649
sI117319
(dp1650
sI117320
(dp1651
sI117321
(dp1652
sI117322
(dp1653
sI117323
(dp1654
sI117324
(dp1655
sI117325
(dp1656
sI117326
(dp1657
sI117327
(dp1658
sI117328
(dp1659
sI117329
(dp1660
sI117330
(dp1661
sI117331
(dp1662
sI117332
(dp1663
sI117333
(dp1664
sI117334
(dp1665
sI117335
(dp1666
sI136975
(dp1667
sI143299
(dp1668
sI136976
(dp1669
sI158311
(dp1670
sI150120
(dp1671
sI139708
(dp1672
sI150122
(dp1673
sI150123
(dp1674
sI150124
(dp1675
sI136978
(dp1676
sI150126
(dp1677
sI127421
(dp1678
sI140299
(dp1679
sI133747
(dp1680
sI125557
(dp1681
sI117366
(dp1682
sI117367
(dp1683
sI117368
(dp1684
sI117369
(dp1685
sI117370
(dp1686
sI117371
(dp1687
sI117372
(dp1688
sI117373
(dp1689
sI117374
(dp1690
sI117375
(dp1691
sI117376
(dp1692
sI117377
(dp1693
sI117378
(dp1694
sI117379
(dp1695
sI117380
(dp1696
sI117381
(dp1697
sI133766
(dp1698
sI127425
(dp1699
sI133768
(dp1700
sI133769
(dp1701
sI136983
(dp1702
sI117389
(dp1703
sI156667
(dp1704
sI144391
(dp1705
sI153368
(dp1706
sI146542
(dp1707
sI133782
(dp1708
sI158359
(dp1709
sI158360
(dp1710
sI158362
(dp1711
sI140846
(dp1712
sI151923
(dp1713
sI158365
(dp1714
sI135936
(dp1715
sI117408
(dp1716
sI150640
(dp1717
sI141988
(dp1718
sI137063
(dp1719
sI158850
(dp1720
sI150121
(dp1721
sI120604
(dp1722
sI133803
(dp1723
sI152849
(dp1724
sI117421
(dp1725
sI149303
(dp1726
sI142005
(dp1727
sI150198
(dp1728
sI128299
(dp1729
sI137234
(dp1730
sI143719
(dp1731
sI123338
(dp1732
sI137301
(dp1733
sI131531
(dp1734
sI158851
(dp1735
sI154303
(dp1736
sI133833
(dp1737
sI133834
(dp1738
sI158412
(dp1739
sI125646
(dp1740
sI131533
(dp1741
sI156026
(dp1742
sI142033
(dp1743
sI142034
(dp1744
sI120611
(dp1745
sI142036
(dp1746
sI142037
(dp1747
sI142038
(dp1748
sI125655
(dp1749
sI136996
(dp1750
sI157027
(dp1751
sI150650
(dp1752
sI136997
(dp1753
sI150240
(dp1754
sI142050
(dp1755
sI136998
(dp1756
sI156113
(dp1757
sI133866
(dp1758
sI133867
(dp1759
sI133868
(dp1760
sI144865
(dp1761
sI144395
(dp1762
sI137000
(dp1763
sI156787
(dp1764
sI156115
(dp1765
sI137001
(dp1766
sI126552
(dp1767
sI137002
(dp1768
sI152503
(dp1769
sI158853
(dp1770
sI158848
(dp1771
sI132907
(dp1772
sI158849
(dp1773
sI133896
(dp1774
sI132908
(dp1775
sI133898
(dp1776
sI131543
(dp1777
sI133900
(dp1778
sI133901
(dp1779
sI133902
(dp1780
sI132909
(dp1781
sI133904
(dp1782
sI133905
(dp1783
sI133906
(dp1784
sI133907
(dp1785
sI133908
(dp1786
sI128814
(dp1787
sI133910
(dp1788
sI133911
(dp1789
sI133912
(dp1790
sI133913
(dp1791
sI133914
(dp1792
sI132911
(dp1793
sI133916
(dp1794
sI133917
(dp1795
sI133918
(dp1796
sI133919
(dp1797
sI133920
(dp1798
sI132912
(dp1799
sI133922
(dp1800
sI133923
(dp1801
sI150662
(dp1802
sI132913
(dp1803
sI130183
(dp1804
sI149304
(dp1805
sI141106
(dp1806
sI137032
(dp1807
sI133937
(dp1808
sI133941
(dp1809
sI117561
(dp1810
sI131551
(dp1811
sI138378
(dp1812
sI142147
(dp1813
sI142148
(dp1814
sI142149
(dp1815
sI139215
(dp1816
sI142151
(dp1817
sI142152
(dp1818
sI117578
(dp1819
sI117579
(dp1820
sI117580
(dp1821
sI139488
(dp1822
sI130189
(dp1823
sI141112
(dp1824
sI154568
(dp1825
sI156131
(dp1826
sI158548
(dp1827
sI152179
(dp1828
sI142166
(dp1829
sI149305
(dp1830
sI117593
(dp1831
sI137018
(dp1832
sI149307
(dp1833
sI128828
(dp1834
sI117611
(dp1835
sI150380
(dp1836
sI150381
(dp1837
sI128829
(dp1838
sI143410
(dp1839
sI138387
(dp1840
sI152722
(dp1841
sI128830
(dp1842
sI128831
(dp1843
sI158589
(dp1844
sI158590
(dp1845
sI128832
(dp1846
sI117636
(dp1847
sI134294
(dp1848
sI128833
(dp1849
sI142487
(dp1850
sI125837
(dp1851
sI125838
(dp1852
sI125839
(dp1853
sI125840
(dp1854
sI125841
(dp1855
sI125842
(dp1856
sI128835
(dp1857
sI130201
(dp1858
sI158616
(dp1859
sI128836
(dp1860
sI128837
(dp1861
sI143037
(dp1862
sI152390
(dp1863
sI134051
(dp1864
sI144401
(dp1865
sI137030
(dp1866
sI125862
(dp1867
sI142492
(dp1868
sI137031
(dp1869
sI159950
(dp1870
sI132936
(dp1871
sI134337
(dp1872
sI132937
(dp1873
sI142264
(dp1874
sI142265
(dp1875
sI142266
(dp1876
sI130207
(dp1877
sI140104
(dp1878
sI117699
(dp1879
sI150468
(dp1880
sI150469
(dp1881
sI150470
(dp1882
sI150471
(dp1883
sI154999
(dp1884
sI142282
(dp1885
sI131036
(dp1886
sI150477
(dp1887
sI150478
(dp1888
sI146285
(dp1889
sI143717
(dp1890
sI157518
(dp1891
sI158679
(dp1892
sI158680
(dp1893
sI117722
(dp1894
sI132943
(dp1895
sI150492
(dp1896
sI142303
(dp1897
sI128848
(dp1898
sI117731
(dp1899
sI154905
(dp1900
sI132046
(dp1901
sI137083
(dp1902
sI124754
(dp1903
sI117744
(dp1904
sI150513
(dp1905
sI157523
(dp1906
sI117749
(dp1907
sI148042
(dp1908
sI144131
(dp1909
sI117758
(dp1910
sI117759
(dp1911
sI125953
(dp1912
sI149084
(dp1913
sI128854
(dp1914
sI134150
(dp1915
sI142344
(dp1916
sI117771
(dp1917
sI134161
(dp1918
sI134162
(dp1919
sI158740
(dp1920
sI125973
(dp1921
sI144132
(dp1922
sI137049
(dp1923
sI137050
(dp1924
sI142701
(dp1925
sI143396
(dp1926
sI134179
(dp1927
sI146609
(dp1928
sI137052
(dp1929
sI140830
(dp1930
sI134322
(dp1931
sI120669
(dp1932
sI128664
(dp1933
sI134323
(dp1934
sI137054
(dp1935
sI137055
(dp1936
sI146613
(dp1937
sI137056
(dp1938
sI154507
(dp1939
sI137057
(dp1940
sI145522
(dp1941
sI152590
(dp1942
sI134221
(dp1943
sI126030
(dp1944
sI134223
(dp1945
sI134224
(dp1946
sI134225
(dp1947
sI134226
(dp1948
sI134227
(dp1949
sI134228
(dp1950
sI134229
(dp1951
sI134230
(dp1952
sI134231
(dp1953
sI134232
(dp1954
sI134233
(dp1955
sI134234
(dp1956
sI126043
(dp1957
sI134236
(dp1958
sI134237
(dp1959
sI134238
(dp1960
sI128869
(dp1961
sI134240
(dp1962
sI134241
(dp1963
sI134242
(dp1964
sI134243
(dp1965
sI134244
(dp1966
sI134245
(dp1967
sI134246
(dp1968
sI134247
(dp1969
sI134248
(dp1970
sI134249
(dp1971
sI134250
(dp1972
sI134251
(dp1973
sI134252
(dp1974
sI134253
(dp1975
sI134254
(dp1976
sI134255
(dp1977
sI134256
(dp1978
sI134257
(dp1979
sI134258
(dp1980
sI134259
(dp1981
sI134260
(dp1982
sI134261
(dp1983
sI134262
(dp1984
sI134263
(dp1985
sI134264
(dp1986
sI126073
(dp1987
sI134266
(dp1988
sI134267
(dp1989
sI134268
(dp1990
sI134269
(dp1991
sI134270
(dp1992
sI134271
(dp1993
sI134272
(dp1994
sI134273
(dp1995
sI134274
(dp1996
sI120683
(dp1997
sI126084
(dp1998
sI117893
(dp1999
sI134278
(dp2000
sI126145
(dp2001
sI134280
(dp2002
sI134281
(dp2003
sI134282
(dp2004
sI134283
(dp2005
sI134284
(dp2006
sI134285
(dp2007
sI134286
(dp2008
sI134287
(dp2009
sI134288
(dp2010
sI134289
(dp2011
sI134290
(dp2012
sI134291
(dp2013
sI134292
(dp2014
sI134293
(dp2015
sI117910
(dp2016
sI134295
(dp2017
sI134296
(dp2018
sI134297
(dp2019
sI134298
(dp2020
sI134299
(dp2021
sI134300
(dp2022
sI134301
(dp2023
sI134302
(dp2024
sI134303
(dp2025
sI134304
(dp2026
sI134305
(dp2027
sI134306
(dp2028
sI134307
(dp2029
sI134308
(dp2030
sI134309
(dp2031
sI134310
(dp2032
sI134311
(dp2033
sI134312
(dp2034
sI134313
(dp2035
sI134314
(dp2036
sI134315
(dp2037
sI134316
(dp2038
sI134317
(dp2039
sI134318
(dp2040
sI134319
(dp2041
sI134320
(dp2042
sI134321
(dp2043
sI126130
(dp2044
sI126131
(dp2045
sI134324
(dp2046
sI134325
(dp2047
sI134326
(dp2048
sI134327
(dp2049
sI134328
(dp2050
sI126137
(dp2051
sI126138
(dp2052
sI134331
(dp2053
sI134332
(dp2054
sI134333
(dp2055
sI134334
(dp2056
sI134335
(dp2057
sI134336
(dp2058
sI117953
(dp2059
sI117954
(dp2060
sI134339
(dp2061
sI134340
(dp2062
sI134341
(dp2063
sI134342
(dp2064
sI131617
(dp2065
sI134344
(dp2066
sI134345
(dp2067
sI134346
(dp2068
sI134347
(dp2069
sI134348
(dp2070
sI134349
(dp2071
sI134350
(dp2072
sI134351
(dp2073
sI134352
(dp2074
sI134353
(dp2075
sI134354
(dp2076
sI134355
(dp2077
sI134356
(dp2078
sI134357
(dp2079
sI134358
(dp2080
sI134359
(dp2081
sI134360
(dp2082
sI134361
(dp2083
sI134362
(dp2084
sI126171
(dp2085
sI126172
(dp2086
sI117981
(dp2087
sI134366
(dp2088
sI134367
(dp2089
sI134368
(dp2090
sI134369
(dp2091
sI134370
(dp2092
sI134371
(dp2093
sI134372
(dp2094
sI126181
(dp2095
sI134374
(dp2096
sI134375
(dp2097
sI134376
(dp2098
sI134377
(dp2099
sI134378
(dp2100
sI134379
(dp2101
sI134380
(dp2102
sI126189
(dp2103
sI134382
(dp2104
sI134383
(dp2105
sI134384
(dp2106
sI134385
(dp2107
sI134386
(dp2108
sI134387
(dp2109
sI134388
(dp2110
sI134389
(dp2111
sI134390
(dp2112
sI134391
(dp2113
sI134392
(dp2114
sI134393
(dp2115
sI126202
(dp2116
sI126203
(dp2117
sI126204
(dp2118
sI118013
(dp2119
sI126206
(dp2120
sI126207
(dp2121
sI134400
(dp2122
sI134401
(dp2123
sI134402
(dp2124
sI134403
(dp2125
sI134404
(dp2126
sI134405
(dp2127
sI134406
(dp2128
sI134407
(dp2129
sI126216
(dp2130
sI134409
(dp2131
sI134410
(dp2132
sI134411
(dp2133
sI118028
(dp2134
sI118029
(dp2135
sI118030
(dp2136
sI118031
(dp2137
sI118032
(dp2138
sI118033
(dp2139
sI118034
(dp2140
sI118035
(dp2141
sI118036
(dp2142
sI134421
(dp2143
sI134422
(dp2144
sI134423
(dp2145
sI134424
(dp2146
sI134425
(dp2147
sI118042
(dp2148
sI134427
(dp2149
sI134428
(dp2150
sI134429
(dp2151
sI134430
(dp2152
sI134431
(dp2153
sI126240
(dp2154
sI134394
(dp2155
sI134434
(dp2156
sI118051
(dp2157
sI134436
(dp2158
sI134437
(dp2159
sI134438
(dp2160
sI134439
(dp2161
sI134364
(dp2162
sI128535
(dp2163
sI134444
(dp2164
sI134365
(dp2165
sI150833
(dp2166
sI142645
(dp2167
sI151743
(dp2168
sI145290
(dp2169
sI142655
(dp2170
sI120715
(dp2171
sI118085
(dp2172
sI137194
(dp2173
sI157908
(dp2174
sI137323
(dp2175
sI134484
(dp2176
sI126294
(dp2177
sI118104
(dp2178
sI124815
(dp2179
sI134373
(dp2180
sI126304
(dp2181
sI134398
(dp2182
sI145507
(dp2183
sI126308
(dp2184
sI150885
(dp2185
sI120721
(dp2186
sI154509
(dp2187
sI137051
(dp2188
sI137106
(dp2189
sI142702
(dp2190
sI120723
(dp2191
sI145524
(dp2192
sI148030
(dp2193
sI137108
(dp2194
sI152780
(dp2195
sI118140
(dp2196
sI126337
(dp2197
sI154510
(dp2198
sI144480
(dp2199
sI134381
(dp2200
sI137068
(dp2201
sI118165
(dp2202
sI134551
(dp2203
sI118168
(dp2204
sI156228
(dp2205
sI118170
(dp2206
sI142747
(dp2207
sI145306
(dp2208
sI145509
(dp2209
sI118179
(dp2210
sI126373
(dp2211
sI126374
(dp2212
sI126375
(dp2213
sI143724
(dp2214
sI156231
(dp2215
sI152329
(dp2216
sI150770
(dp2217
sI145309
(dp2218
sI148040
(dp2219
sI156233
(dp2220
sI118202
(dp2221
sI145510
(dp2222
sI142782
(dp2223
sI118208
(dp2224
sI120736
(dp2225
sI118210
(dp2226
sI118211
(dp2227
sI118212
(dp2228
sI118213
(dp2229
sI118214
(dp2230
sI118215
(dp2231
sI152358
(dp2232
sI142807
(dp2233
sI149412
(dp2234
sI142810
(dp2235
sI144870
(dp2236
sI110045
(dp2237
sI134395
(dp2238
sI155271
(dp2239
sI134632
(dp2240
sI134396
(dp2241
sI134636
(dp2242
sI126205
(dp2243
sI128936
(dp2244
sI118261
(dp2245
sI118262
(dp2246
sI118263
(dp2247
sI118264
(dp2248
sI118265
(dp2249
sI118266
(dp2250
sI118267
(dp2251
sI118268
(dp2252
sI118269
(dp2253
sI118270
(dp2254
sI118271
(dp2255
sI118272
(dp2256
sI118273
(dp2257
sI145525
(dp2258
sI120749
(dp2259
sI156248
(dp2260
sI134677
(dp2261
sI145513
(dp2262
sI110105
(dp2263
sI126490
(dp2264
sI137135
(dp2265
sI118301
(dp2266
sI142961
(dp2267
sI137136
(dp2268
sI139033
(dp2269
sI126505
(dp2270
sI156491
(dp2271
sI128408
(dp2272
sI145330
(dp2273
sI143965
(dp2274
sI134408
(dp2275
sI137876
(dp2276
sI145331
(dp2277
sI145514
(dp2278
sI136785
(dp2279
sI134330
(dp2280
sI118329
(dp2281
sI135775
(dp2282
sI142908
(dp2283
sI126525
(dp2284
sI159295
(dp2285
sI143725
(dp2286
sI126529
(dp2287
sI141270
(dp2288
sI137331
(dp2289
sI126533
(dp2290
sI126534
(dp2291
sI143969
(dp2292
sI137342
(dp2293
sI134412
(dp2294
sI126538
(dp2295
sI126539
(dp2296
sI126543
(dp2297
sI126545
(dp2298
sI145515
(dp2299
sI126548
(dp2300
sI134414
(dp2301
sI159952
(dp2302
sI110168
(dp2303
sI134415
(dp2304
sI126556
(dp2305
sI120762
(dp2306
sI126558
(dp2307
sI134416
(dp2308
sI137147
(dp2309
sI126565
(dp2310
sI134758
(dp2311
sI134417
(dp2312
sI142953
(dp2313
sI138597
(dp2314
sI134418
(dp2315
sI110193
(dp2316
sI134419
(dp2317
sI126580
(dp2318
sI134420
(dp2319
sI133055
(dp2320
sI158610
(dp2321
sI134783
(dp2322
sI131691
(dp2323
sI142982
(dp2324
sI157633
(dp2325
sI159369
(dp2326
sI138519
(dp2327
sI139361
(dp2328
sI145506
(dp2329
sI134799
(dp2330
sI110225
(dp2331
sI131694
(dp2332
sI137061
(dp2333
sI131695
(dp2334
sI134426
(dp2335
sI138886
(dp2336
sI131696
(dp2337
sI131697
(dp2338
sI157212
(dp2339
sI131698
(dp2340
sI143024
(dp2341
sI131699
(dp2342
sI137062
(dp2343
sI138426
(dp2344
sI131700
(dp2345
sI158456
(dp2346
sI137162
(dp2347
sI143039
(dp2348
sI134432
(dp2349
sI137163
(dp2350
sI134433
(dp2351
sI140847
(dp2352
sI145519
(dp2353
sI159436
(dp2354
sI134861
(dp2355
sI134862
(dp2356
sI128973
(dp2357
sI154521
(dp2358
sI134865
(dp2359
sI134866
(dp2360
sI134435
(dp2361
sI120782
(dp2362
sI123513
(dp2363
sI143066
(dp2364
sI110301
(dp2365
sI126688
(dp2366
sI143074
(dp2367
sI134397
(dp2368
sI157698
(dp2369
sI145361
(dp2370
sI145520
(dp2371
sI149458
(dp2372
sI137064
(dp2373
sI137171
(dp2374
sI110328
(dp2375
sI126713
(dp2376
sI118527
(dp2377
sI118528
(dp2378
sI118529
(dp2379
sI118530
(dp2380
sI118531
(dp2381
sI118532
(dp2382
sI118533
(dp2383
sI118534
(dp2384
sI145521
(dp2385
sI126730
(dp2386
sI128287
(dp2387
sI137065
(dp2388
sI134928
(dp2389
sI110353
(dp2390
sI143123
(dp2391
sI149587
(dp2392
sI110359
(dp2393
sI110360
(dp2394
sI110361
(dp2395
sI138543
(dp2396
sI128986
(dp2397
sI110369
(dp2398
sI119062
(dp2399
sI110371
(dp2400
sI134948
(dp2401
sI139248
(dp2402
sI134950
(dp2403
sI134951
(dp2404
sI134338
(dp2405
sI134953
(dp2406
sI134954
(dp2407
sI134955
(dp2408
sI134956
(dp2409
sI134957
(dp2410
sI134958
(dp2411
sI134959
(dp2412
sI134961
(dp2413
sI126772
(dp2414
sI128990
(dp2415
sI145527
(dp2416
sI139913
(dp2417
sI154212
(dp2418
sI139914
(dp2419
sI152292
(dp2420
sI128992
(dp2421
sI129156
(dp2422
sI145523
(dp2423
sI128993
(dp2424
sI137067
(dp2425
sI110413
(dp2426
sI110415
(dp2427
sI139795
(dp2428
sI137340
(dp2429
sI159570
(dp2430
sI137187
(dp2431
sI136249
(dp2432
sI110424
(dp2433
sI135001
(dp2434
sI135002
(dp2435
sI135003
(dp2436
sI110430
(dp2437
sI137189
(dp2438
sI135009
(dp2439
sI135010
(dp2440
sI135011
(dp2441
sI135012
(dp2442
sI135013
(dp2443
sI135014
(dp2444
sI135015
(dp2445
sI135016
(dp2446
sI135017
(dp2447
sI135018
(dp2448
sI128999
(dp2449
sI110444
(dp2450
sI137341
(dp2451
sI137192
(dp2452
sI126834
(dp2453
sI139923
(dp2454
sI143220
(dp2455
sI135029
(dp2456
sI137193
(dp2457
sI118649
(dp2458
sI118650
(dp2459
sI118651
(dp2460
sI118652
(dp2461
sI118653
(dp2462
sI118654
(dp2463
sI118655
(dp2464
sI118656
(dp2465
sI118657
(dp2466
sI118658
(dp2467
sI118659
(dp2468
sI118663
(dp2469
sI118664
(dp2470
sI118665
(dp2471
sI118666
(dp2472
sI110475
(dp2473
sI110476
(dp2474
sI110477
(dp2475
sI110478
(dp2476
sI137197
(dp2477
sI157528
(dp2478
sI159633
(dp2479
sI137198
(dp2480
sI128397
(dp2481
sI110488
(dp2482
sI118683
(dp2483
sI126876
(dp2484
sI145526
(dp2485
sI135070
(dp2486
sI137200
(dp2487
sI159650
(dp2488
sI143957
(dp2489
sI137070
(dp2490
sI149489
(dp2491
sI118696
(dp2492
sI118697
(dp2493
sI118698
(dp2494
sI137343
(dp2495
sI135088
(dp2496
sI159666
(dp2497
sI131742
(dp2498
sI120820
(dp2499
sI126906
(dp2500
sI126907
(dp2501
sI134343
(dp2502
sI120821
(dp2503
sI136812
(dp2504
sI137071
(dp2505
sI126916
(dp2506
sI137344
(dp2507
sI137290
(dp2508
sI123554
(dp2509
sI157688
(dp2510
sI126930
(dp2511
sI123555
(dp2512
sI126933
(dp2513
sI118742
(dp2514
sI156852
(dp2515
sI134235
(dp2516
sI143327
(dp2517
sI137072
(dp2518
sI154170
(dp2519
sI131750
(dp2520
sI135143
(dp2521
sI137345
(dp2522
sI159986
(dp2523
sI135150
(dp2524
sI157693
(dp2525
sI159728
(dp2526
sI123560
(dp2527
sI157694
(dp2528
sI149503
(dp2529
sI149147
(dp2530
sI143358
(dp2531
sI137073
(dp2532
sI118784
(dp2533
sI149504
(dp2534
sI143728
(dp2535
sI118787
(dp2536
sI142678
(dp2537
sI135174
(dp2538
sI126983
(dp2539
sI135179
(dp2540
sI149506
(dp2541
sI134399
(dp2542
sI154968
(dp2543
sI157699
(dp2544
sI154969
(dp2545
sI133124
(dp2546
sI137727
(dp2547
sI148258
(dp2548
sI120707
(dp2549
sI137074
(dp2550
sI157701
(dp2551
sI129709
(dp2552
sI127010
(dp2553
sI127012
(dp2554
sI127013
(dp2555
sI110630
(dp2556
sI151748
(dp2557
sI127018
(dp2558
sI127019
(dp2559
sI127021
(dp2560
sI127024
(dp2561
sI127025
(dp2562
sI127026
(dp2563
sI127027
(dp2564
sI159797
(dp2565
sI159798
(dp2566
sI135223
(dp2567
sI139956
(dp2568
sI137075
(dp2569
sI129034
(dp2570
sI129710
(dp2571
sI137348
(dp2572
sI129035
(dp2573
sI158898
(dp2574
sI129036
(dp2575
sI127051
(dp2576
sI159820
(dp2577
sI127801
(dp2578
sI129037
(dp2579
sI129038
(dp2580
sI139961
(dp2581
sI135256
(dp2582
sI137076
(dp2583
sI129039
(dp2584
sI129711
(dp2585
sI127071
(dp2586
sI129040
(dp2587
sI139963
(dp2588
sI129041
(dp2589
sI151656
(dp2590
sI135274
(dp2591
sI118893
(dp2592
sI149352
(dp2593
sI127090
(dp2594
sI120851
(dp2595
sI135287
(dp2596
sI157079
(dp2597
sI120852
(dp2598
sI138441
(dp2599
sI139967
(dp2600
sI127101
(dp2601
sI127102
(dp2602
sI118911
(dp2603
sI127104
(dp2604
sI127105
(dp2605
sI127107
(dp2606
sI127109
(dp2607
sI127110
(dp2608
sI127111
(dp2609
sI127112
(dp2610
sI127113
(dp2611
sI127114
(dp2612
sI110731
(dp2613
sI127116
(dp2614
sI135309
(dp2615
sI118927
(dp2616
sI129048
(dp2617
sI155750
(dp2618
sI137078
(dp2619
sI127126
(dp2620
sI143729
(dp2621
sI110749
(dp2622
sI127134
(dp2623
sI127135
(dp2624
sI128617
(dp2625
sI137346
(dp2626
sI143129
(dp2627
sI139261
(dp2628
sI118956
(dp2629
sI118959
(dp2630
sI139201
(dp2631
sI137079
(dp2632
sI127164
(dp2633
sI127165
(dp2634
sI127166
(dp2635
sI127167
(dp2636
sI127168
(dp2637
sI127169
(dp2638
sI127170
(dp2639
sI127171
(dp2640
sI127172
(dp2641
sI127173
(dp2642
sI127174
(dp2643
sI127175
(dp2644
sI127176
(dp2645
sI127177
(dp2646
sI127178
(dp2647
sI127179
(dp2648
sI127180
(dp2649
sI127181
(dp2650
sI127182
(dp2651
sI127183
(dp2652
sI127184
(dp2653
sI127185
(dp2654
sI159954
(dp2655
sI159955
(dp2656
sI127188
(dp2657
sI131790
(dp2658
sI133534
(dp2659
sI159959
(dp2660
sI137353
(dp2661
sI148175
(dp2662
sI129988
(dp2663
sI135392
(dp2664
sI119012
(dp2665
sI157734
(dp2666
sI119015
(dp2667
sI135400
(dp2668
sI135401
(dp2669
sI119018
(dp2670
sI135403
(dp2671
sI135404
(dp2672
sI135405
(dp2673
sI127214
(dp2674
sI127215
(dp2675
sI127216
(dp2676
sI127217
(dp2677
sI127218
(dp2678
sI127219
(dp2679
sI110836
(dp2680
sI127221
(dp2681
sI127222
(dp2682
sI151800
(dp2683
sI135417
(dp2684
sI129989
(dp2685
sI110844
(dp2686
sI135421
(dp2687
sI159998
(dp2688
sI148181
(dp2689
sI135424
(dp2690
sI127233
(dp2691
sI135426
(dp2692
sI129067
(dp2693
sI135428
(dp2694
sI135429
(dp2695
sI135430
(dp2696
sI135431
(dp2697
sI135432
(dp2698
sI135433
(dp2699
sI135434
(dp2700
sI135435
(dp2701
sI135436
(dp2702
sI137082
(dp2703
sI156892
(dp2704
sI130435
(dp2705
sI147448
(dp2706
sI110870
(dp2707
sI129990
(dp2708
sI137263
(dp2709
sI145312
(dp2710
sI135459
(dp2711
sI149358
(dp2712
sI129073
(dp2713
sI144448
(dp2714
sI135466
(dp2715
sI130439
(dp2716
sI135468
(dp2717
sI135469
(dp2718
sI135470
(dp2719
sI135471
(dp2720
sI135472
(dp2721
sI135473
(dp2722
sI135474
(dp2723
sI135475
(dp2724
sI127284
(dp2725
sI127285
(dp2726
sI129991
(dp2727
sI135479
(dp2728
sI135480
(dp2729
sI135481
(dp2730
sI135482
(dp2731
sI135483
(dp2732
sI135484
(dp2733
sI135485
(dp2734
sI135486
(dp2735
sI110911
(dp2736
sI122899
(dp2737
sI135489
(dp2738
sI135490
(dp2739
sI135491
(dp2740
sI135492
(dp2741
sI135493
(dp2742
sI135494
(dp2743
sI135495
(dp2744
sI135496
(dp2745
sI135497
(dp2746
sI135498
(dp2747
sI135499
(dp2748
sI135500
(dp2749
sI135501
(dp2750
sI135502
(dp2751
sI135503
(dp2752
sI135504
(dp2753
sI135505
(dp2754
sI135506
(dp2755
sI135507
(dp2756
sI135508
(dp2757
sI135510
(dp2758
sI129081
(dp2759
sI127320
(dp2760
sI127321
(dp2761
sI127322
(dp2762
sI135515
(dp2763
sI135516
(dp2764
sI135517
(dp2765
sI135518
(dp2766
sI135519
(dp2767
sI135520
(dp2768
sI135521
(dp2769
sI135522
(dp2770
sI135523
(dp2771
sI135524
(dp2772
sI135525
(dp2773
sI135526
(dp2774
sI135527
(dp2775
sI135528
(dp2776
sI135529
(dp2777
sI135530
(dp2778
sI119147
(dp2779
sI119148
(dp2780
sI119149
(dp2781
sI119150
(dp2782
sI119151
(dp2783
sI119152
(dp2784
sI119153
(dp2785
sI119154
(dp2786
sI119155
(dp2787
sI119156
(dp2788
sI119157
(dp2789
sI135542
(dp2790
sI135545
(dp2791
sI137279
(dp2792
sI110978
(dp2793
sI110980
(dp2794
sI137086
(dp2795
sI151944
(dp2796
sI119180
(dp2797
sI151950
(dp2798
sI129994
(dp2799
sI143761
(dp2800
sI143762
(dp2801
sI143763
(dp2802
sI143764
(dp2803
sI143765
(dp2804
sI143766
(dp2805
sI127387
(dp2806
sI134554
(dp2807
sI127391
(dp2808
sI127392
(dp2809
sI141997
(dp2810
sI127394
(dp2811
sI130459
(dp2812
sI144113
(dp2813
sI119208
(dp2814
sI137287
(dp2815
sI151981
(dp2816
sI127406
(dp2817
sI111023
(dp2818
sI137288
(dp2819
sI135923
(dp2820
sI127412
(dp2821
sI127414
(dp2822
sI111031
(dp2823
sI135610
(dp2824
sI143089
(dp2825
sI111037
(dp2826
sI131905
(dp2827
sI111041
(dp2828
sI137088
(dp2829
sI137291
(dp2830
sI111044
(dp2831
sI135997
(dp2832
sI143816
(dp2833
sI152311
(dp2834
sI111052
(dp2835
sI158911
(dp2836
sI111057
(dp2837
sI126371
(dp2838
sI135929
(dp2839
sI119258
(dp2840
sI133270
(dp2841
sI137296
(dp2842
sI119266
(dp2843
sI155093
(dp2844
sI152043
(dp2845
sI119276
(dp2846
sI137298
(dp2847
sI119280
(dp2848
sI137130
(dp2849
sI137299
(dp2850
sI143860
(dp2851
sI143863
(dp2852
sI142913
(dp2853
sI135677
(dp2854
sI135679
(dp2855
sI135680
(dp2856
sI135681
(dp2857
sI135937
(dp2858
sI144768
(dp2859
sI133817
(dp2860
sI137303
(dp2861
sI135938
(dp2862
sI130477
(dp2863
sI149592
(dp2864
sI135939
(dp2865
sI136818
(dp2866
sI134363
(dp2867
sI149593
(dp2868
sI131844
(dp2869
sI137306
(dp2870
sI135941
(dp2871
sI143905
(dp2872
sI152100
(dp2873
sI135942
(dp2874
sI155243
(dp2875
sI150185
(dp2876
sI135943
(dp2877
sI135944
(dp2878
sI135730
(dp2879
sI136819
(dp2880
sI137185
(dp2881
sI138183
(dp2882
sI135945
(dp2883
sI145503
(dp2884
sI135946
(dp2885
sI154823
(dp2886
sI152127
(dp2887
sI145504
(dp2888
sI135746
(dp2889
sI135947
(dp2890
sI137313
(dp2891
sI135948
(dp2892
sI149095
(dp2893
sI119372
(dp2894
sI135757
(dp2895
sI127757
(dp2896
sI136820
(dp2897
sI143955
(dp2898
sI143956
(dp2899
sI123662
(dp2900
sI143958
(dp2901
sI143959
(dp2902
sI143960
(dp2903
sI143961
(dp2904
sI143962
(dp2905
sI143963
(dp2906
sI143964
(dp2907
sI134586
(dp2908
sI143966
(dp2909
sI119391
(dp2910
sI143968
(dp2911
sI135777
(dp2912
sI138683
(dp2913
sI137318
(dp2914
sI135783
(dp2915
sI149096
(dp2916
sI137319
(dp2917
sI111213
(dp2918
sI111214
(dp2919
sI138685
(dp2920
sI137320
(dp2921
sI111219
(dp2922
sI148424
(dp2923
sI137321
(dp2924
sI135956
(dp2925
sI154825
(dp2926
sI137322
(dp2927
sI135808
(dp2928
sI140095
(dp2929
sI135811
(dp2930
sI137324
(dp2931
sI135959
(dp2932
sI137325
(dp2933
sI144152
(dp2934
sI159390
(dp2935
sI158372
(dp2936
sI137095
(dp2937
sI137326
(dp2938
sI155142
(dp2939
sI129730
(dp2940
sI137327
(dp2941
sI148250
(dp2942
sI136277
(dp2943
sI140096
(dp2944
sI137328
(dp2945
sI135843
(dp2946
sI155078
(dp2947
sI137329
(dp2948
sI144041
(dp2949
sI157317
(dp2950
sI152235
(dp2951
sI152236
(dp2952
sI137330
(dp2953
sI135854
(dp2954
sI144359
(dp2955
sI111283
(dp2956
sI152246
(dp2957
sI129140
(dp2958
sI127674
(dp2959
sI119483
(dp2960
sI127678
(dp2961
sI137333
(dp2962
sI137084
(dp2963
sI137334
(dp2964
sI135878
(dp2965
sI111305
(dp2966
sI137186
(dp2967
sI127778
(dp2968
sI156506
(dp2969
sI137336
(dp2970
sI127779
(dp2971
sI152277
(dp2972
sI137337
(dp2973
sI127780
(dp2974
sI137338
(dp2975
sI111326
(dp2976
sI127781
(dp2977
sI137339
(dp2978
sI135908
(dp2979
sI127782
(dp2980
sI119528
(dp2981
sI119529
(dp2982
sI119530
(dp2983
sI119531
(dp2984
sI119532
(dp2985
sI119533
(dp2986
sI119534
(dp2987
sI119535
(dp2988
sI119536
(dp2989
sI119537
(dp2990
sI119538
(dp2991
sI119539
(dp2992
sI119540
(dp2993
sI119541
(dp2994
sI119542
(dp2995
sI119543
(dp2996
sI119544
(dp2997
sI119545
(dp2998
sI119546
(dp2999
sI119547
(dp3000
sI119548
(dp3001
sI119549
(dp3002
sI119551
(dp3003
sI119552
(dp3004
sI119553
(dp3005
sI119554
(dp3006
sI119555
(dp3007
sI135940
(dp3008
sI119557
(dp3009
sI119558
(dp3010
sI119559
(dp3011
sI119560
(dp3012
sI119561
(dp3013
sI119562
(dp3014
sI119563
(dp3015
sI119564
(dp3016
sI119565
(dp3017
sI119566
(dp3018
sI119567
(dp3019
sI119568
(dp3020
sI119569
(dp3021
sI119570
(dp3022
sI119571
(dp3023
sI119572
(dp3024
sI119573
(dp3025
sI119574
(dp3026
sI119575
(dp3027
sI119576
(dp3028
sI119577
(dp3029
sI119578
(dp3030
sI119579
(dp3031
sI119580
(dp3032
sI119582
(dp3033
sI119583
(dp3034
sI119584
(dp3035
sI119585
(dp3036
sI119586
(dp3037
sI119587
(dp3038
sI119588
(dp3039
sI119589
(dp3040
sI119590
(dp3041
sI119591
(dp3042
sI119592
(dp3043
sI119593
(dp3044
sI119594
(dp3045
sI137351
(dp3046
sI119596
(dp3047
sI119598
(dp3048
sI119599
(dp3049
sI119600
(dp3050
sI119602
(dp3051
sI119603
(dp3052
sI119604
(dp3053
sI119605
(dp3054
sI119606
(dp3055
sI119607
(dp3056
sI119609
(dp3057
sI119610
(dp3058
sI119611
(dp3059
sI119612
(dp3060
sI119613
(dp3061
sI119614
(dp3062
sI119615
(dp3063
sI119616
(dp3064
sI119617
(dp3065
sI119618
(dp3066
sI119619
(dp3067
sI119620
(dp3068
sI119621
(dp3069
sI119622
(dp3070
sI119623
(dp3071
sI119624
(dp3072
sI136009
(dp3073
sI119626
(dp3074
sI119627
(dp3075
sI119628
(dp3076
sI144111
(dp3077
sI119630
(dp3078
sI119631
(dp3079
sI119632
(dp3080
sI119633
(dp3081
sI119634
(dp3082
sI122339
(dp3083
sI119636
(dp3084
sI119637
(dp3085
sI119638
(dp3086
sI119639
(dp3087
sI119640
(dp3088
sI119641
(dp3089
sI119642
(dp3090
sI119643
(dp3091
sI119644
(dp3092
sI119645
(dp3093
sI119646
(dp3094
sI119647
(dp3095
sI119648
(dp3096
sI119649
(dp3097
sI119650
(dp3098
sI119651
(dp3099
sI119652
(dp3100
sI119653
(dp3101
sI119654
(dp3102
sI119655
(dp3103
sI119656
(dp3104
sI119657
(dp3105
sI119658
(dp3106
sI119659
(dp3107
sI119660
(dp3108
sI119661
(dp3109
sI119662
(dp3110
sI119663
(dp3111
sI119664
(dp3112
sI119665
(dp3113
sI140103
(dp3114
sI119667
(dp3115
sI119668
(dp3116
sI119669
(dp3117
sI111478
(dp3118
sI119671
(dp3119
sI119672
(dp3120
sI136057
(dp3121
sI119674
(dp3122
sI119675
(dp3123
sI119676
(dp3124
sI119677
(dp3125
sI119678
(dp3126
sI119679
(dp3127
sI119680
(dp3128
sI119681
(dp3129
sI119683
(dp3130
sI119684
(dp3131
sI119685
(dp3132
sI119686
(dp3133
sI111425
(dp3134
sI119688
(dp3135
sI119689
(dp3136
sI119690
(dp3137
sI119691
(dp3138
sI119692
(dp3139
sI119693
(dp3140
sI119695
(dp3141
sI119696
(dp3142
sI119697
(dp3143
sI119698
(dp3144
sI119699
(dp3145
sI119700
(dp3146
sI119701
(dp3147
sI119703
(dp3148
sI119704
(dp3149
sI119705
(dp3150
sI119706
(dp3151
sI119707
(dp3152
sI136092
(dp3153
sI119709
(dp3154
sI119711
(dp3155
sI119712
(dp3156
sI119714
(dp3157
sI119715
(dp3158
sI119716
(dp3159
sI119717
(dp3160
sI119719
(dp3161
sI119720
(dp3162
sI119721
(dp3163
sI119722
(dp3164
sI119723
(dp3165
sI119725
(dp3166
sI119726
(dp3167
sI119727
(dp3168
sI119729
(dp3169
sI154967
(dp3170
sI119731
(dp3171
sI119732
(dp3172
sI119733
(dp3173
sI119735
(dp3174
sI111544
(dp3175
sI111545
(dp3176
sI119739
(dp3177
sI119740
(dp3178
sI156490
(dp3179
sI119742
(dp3180
sI119743
(dp3181
sI119744
(dp3182
sI119745
(dp3183
sI119746
(dp3184
sI128295
(dp3185
sI119748
(dp3186
sI119749
(dp3187
sI119751
(dp3188
sI119752
(dp3189
sI119753
(dp3190
sI119754
(dp3191
sI119755
(dp3192
sI119756
(dp3193
sI119758
(dp3194
sI119759
(dp3195
sI119760
(dp3196
sI119761
(dp3197
sI119762
(dp3198
sI148590
(dp3199
sI119764
(dp3200
sI119765
(dp3201
sI119766
(dp3202
sI119767
(dp3203
sI119768
(dp3204
sI119769
(dp3205
sI119770
(dp3206
sI119771
(dp3207
sI119772
(dp3208
sI119773
(dp3209
sI119774
(dp3210
sI119775
(dp3211
sI119776
(dp3212
sI119777
(dp3213
sI119778
(dp3214
sI155131
(dp3215
sI119780
(dp3216
sI119781
(dp3217
sI119782
(dp3218
sI111591
(dp3219
sI119784
(dp3220
sI119785
(dp3221
sI119786
(dp3222
sI111595
(dp3223
sI119788
(dp3224
sI119789
(dp3225
sI119790
(dp3226
sI119791
(dp3227
sI119792
(dp3228
sI119793
(dp3229
sI111602
(dp3230
sI119795
(dp3231
sI119796
(dp3232
sI119797
(dp3233
sI119798
(dp3234
sI119799
(dp3235
sI119800
(dp3236
sI119801
(dp3237
sI119802
(dp3238
sI119803
(dp3239
sI119804
(dp3240
sI119805
(dp3241
sI119806
(dp3242
sI119807
(dp3243
sI119808
(dp3244
sI119809
(dp3245
sI119810
(dp3246
sI119811
(dp3247
sI119812
(dp3248
sI119813
(dp3249
sI119814
(dp3250
sI119815
(dp3251
sI119816
(dp3252
sI119817
(dp3253
sI119818
(dp3254
sI119819
(dp3255
sI119820
(dp3256
sI119821
(dp3257
sI119822
(dp3258
sI119823
(dp3259
sI119824
(dp3260
sI119825
(dp3261
sI119826
(dp3262
sI119827
(dp3263
sI119828
(dp3264
sI119829
(dp3265
sI119830
(dp3266
sI119831
(dp3267
sI119832
(dp3268
sI119833
(dp3269
sI119834
(dp3270
sI119835
(dp3271
sI119836
(dp3272
sI119837
(dp3273
sI119838
(dp3274
sI119839
(dp3275
sI119840
(dp3276
sI119841
(dp3277
sI119842
(dp3278
sI119843
(dp3279
sI119844
(dp3280
sI119845
(dp3281
sI119846
(dp3282
sI119847
(dp3283
sI119848
(dp3284
sI119849
(dp3285
sI119850
(dp3286
sI119851
(dp3287
sI119852
(dp3288
sI119853
(dp3289
sI119854
(dp3290
sI119855
(dp3291
sI119856
(dp3292
sI119857
(dp3293
sI119858
(dp3294
sI119859
(dp3295
sI119860
(dp3296
sI119861
(dp3297
sI119862
(dp3298
sI119863
(dp3299
sI119864
(dp3300
sI119865
(dp3301
sI119866
(dp3302
sI119867
(dp3303
sI119868
(dp3304
sI119869
(dp3305
sI119870
(dp3306
sI119871
(dp3307
sI119872
(dp3308
sI119873
(dp3309
sI119874
(dp3310
sI119875
(dp3311
sI119876
(dp3312
sI119877
(dp3313
sI119878
(dp3314
sI119879
(dp3315
sI119881
(dp3316
sI119883
(dp3317
sI119884
(dp3318
sI119885
(dp3319
sI119886
(dp3320
sI119887
(dp3321
sI119888
(dp3322
sI119889
(dp3323
sI119890
(dp3324
sI136275
(dp3325
sI119892
(dp3326
sI119893
(dp3327
sI119894
(dp3328
sI119895
(dp3329
sI119896
(dp3330
sI119897
(dp3331
sI119898
(dp3332
sI119899
(dp3333
sI119900
(dp3334
sI119901
(dp3335
sI119902
(dp3336
sI119903
(dp3337
sI128096
(dp3338
sI119905
(dp3339
sI119906
(dp3340
sI119907
(dp3341
sI119908
(dp3342
sI128101
(dp3343
sI119910
(dp3344
sI119911
(dp3345
sI119912
(dp3346
sI119913
(dp3347
sI119914
(dp3348
sI119915
(dp3349
sI119916
(dp3350
sI119917
(dp3351
sI119918
(dp3352
sI119919
(dp3353
sI119920
(dp3354
sI119921
(dp3355
sI119922
(dp3356
sI119923
(dp3357
sI119924
(dp3358
sI119925
(dp3359
sI119926
(dp3360
sI128119
(dp3361
sI119928
(dp3362
sI119929
(dp3363
sI128122
(dp3364
sI119931
(dp3365
sI119932
(dp3366
sI119933
(dp3367
sI119934
(dp3368
sI119935
(dp3369
sI119936
(dp3370
sI119937
(dp3371
sI119938
(dp3372
sI119939
(dp3373
sI119940
(dp3374
sI119941
(dp3375
sI119942
(dp3376
sI119943
(dp3377
sI119944
(dp3378
sI119945
(dp3379
sI119946
(dp3380
sI119947
(dp3381
sI119948
(dp3382
sI119949
(dp3383
sI119950
(dp3384
sI119951
(dp3385
sI119952
(dp3386
sI119953
(dp3387
sI119954
(dp3388
sI119955
(dp3389
sI119956
(dp3390
sI119957
(dp3391
sI119958
(dp3392
sI119959
(dp3393
sI119960
(dp3394
sI119961
(dp3395
sI119962
(dp3396
sI119963
(dp3397
sI119964
(dp3398
sI119965
(dp3399
sI119966
(dp3400
sI119967
(dp3401
sI119968
(dp3402
sI119969
(dp3403
sI119970
(dp3404
sI119971
(dp3405
sI119972
(dp3406
sI119973
(dp3407
sI119974
(dp3408
sI119975
(dp3409
sI119976
(dp3410
sI119977
(dp3411
sI119978
(dp3412
sI119979
(dp3413
sI119980
(dp3414
sI119981
(dp3415
sI119982
(dp3416
sI119983
(dp3417
sI119984
(dp3418
sI119985
(dp3419
sI119986
(dp3420
sI119987
(dp3421
sI119988
(dp3422
sI119989
(dp3423
sI119990
(dp3424
sI119991
(dp3425
sI119992
(dp3426
sI119993
(dp3427
sI119994
(dp3428
sI119995
(dp3429
sI119996
(dp3430
sI119997
(dp3431
sI119998
(dp3432
sI119999
(dp3433
sI120000
(dp3434
sI120001
(dp3435
sI120002
(dp3436
sI120003
(dp3437
sI120004
(dp3438
sI119670
(dp3439
sI120006
(dp3440
sI120007
(dp3441
sI111816
(dp3442
sI111817
(dp3443
sI120010
(dp3444
sI120011
(dp3445
sI120012
(dp3446
sI120013
(dp3447
sI120014
(dp3448
sI120015
(dp3449
sI128208
(dp3450
sI120017
(dp3451
sI120018
(dp3452
sI120019
(dp3453
sI120020
(dp3454
sI120021
(dp3455
sI120022
(dp3456
sI120023
(dp3457
sI120024
(dp3458
sI120025
(dp3459
sI120026
(dp3460
sI120027
(dp3461
sI120028
(dp3462
sI120029
(dp3463
sI120030
(dp3464
sI120031
(dp3465
sI120032
(dp3466
sI120033
(dp3467
sI120034
(dp3468
sI120035
(dp3469
sI120036
(dp3470
sI120037
(dp3471
sI120038
(dp3472
sI120039
(dp3473
sI120040
(dp3474
sI120041
(dp3475
sI120042
(dp3476
sI120043
(dp3477
sI120044
(dp3478
sI120045
(dp3479
sI120046
(dp3480
sI120047
(dp3481
sI120048
(dp3482
sI120049
(dp3483
sI120050
(dp3484
sI120051
(dp3485
sI120052
(dp3486
sI120053
(dp3487
sI120054
(dp3488
sI120055
(dp3489
sI120056
(dp3490
sI120057
(dp3491
sI120058
(dp3492
sI120059
(dp3493
sI120060
(dp3494
sI120061
(dp3495
sI120062
(dp3496
sI120063
(dp3497
sI120064
(dp3498
sI120065
(dp3499
sI120066
(dp3500
sI120067
(dp3501
sI120068
(dp3502
sI120069
(dp3503
sI120070
(dp3504
sI120071
(dp3505
sI120072
(dp3506
sI120073
(dp3507
sI120074
(dp3508
sI120075
(dp3509
sI120076
(dp3510
sI120077
(dp3511
sI120078
(dp3512
sI111887
(dp3513
sI120080
(dp3514
sI120081
(dp3515
sI120082
(dp3516
sI120083
(dp3517
sI120084
(dp3518
sI120085
(dp3519
sI120086
(dp3520
sI120087
(dp3521
sI120088
(dp3522
sI120089
(dp3523
sI120090
(dp3524
sI120091
(dp3525
sI120092
(dp3526
sI120093
(dp3527
sI120094
(dp3528
sI111903
(dp3529
sI120096
(dp3530
sI120097
(dp3531
sI120098
(dp3532
sI111907
(dp3533
sI120100
(dp3534
sI120101
(dp3535
sI111910
(dp3536
sI111911
(dp3537
sI120104
(dp3538
sI120105
(dp3539
sI120106
(dp3540
sI120107
(dp3541
sI120108
(dp3542
sI120109
(dp3543
sI120110
(dp3544
sI120111
(dp3545
sI120112
(dp3546
sI120113
(dp3547
sI120114
(dp3548
sI120115
(dp3549
sI120116
(dp3550
sI120117
(dp3551
sI120118
(dp3552
sI120119
(dp3553
sI120121
(dp3554
sI120122
(dp3555
sI120123
(dp3556
sI111932
(dp3557
sI120125
(dp3558
sI120126
(dp3559
sI120127
(dp3560
sI120128
(dp3561
sI120129
(dp3562
sI120130
(dp3563
sI120131
(dp3564
sI120132
(dp3565
sI120133
(dp3566
sI120134
(dp3567
sI120135
(dp3568
sI120136
(dp3569
sI120137
(dp3570
sI120138
(dp3571
sI120139
(dp3572
sI120140
(dp3573
sI111949
(dp3574
sI120142
(dp3575
sI120143
(dp3576
sI120144
(dp3577
sI120145
(dp3578
sI120146
(dp3579
sI120147
(dp3580
sI120148
(dp3581
sI120149
(dp3582
sI120151
(dp3583
sI120152
(dp3584
sI120153
(dp3585
sI120154
(dp3586
sI120155
(dp3587
sI120156
(dp3588
sI120157
(dp3589
sI120158
(dp3590
sI120159
(dp3591
sI120160
(dp3592
sI120161
(dp3593
sI120162
(dp3594
sI120163
(dp3595
sI120164
(dp3596
sI120165
(dp3597
sI120166
(dp3598
sI120167
(dp3599
sI120168
(dp3600
sI120169
(dp3601
sI120170
(dp3602
sI120171
(dp3603
sI120172
(dp3604
sI120173
(dp3605
sI120174
(dp3606
sI120175
(dp3607
sI120176
(dp3608
sI120177
(dp3609
sI120178
(dp3610
sI120179
(dp3611
sI120180
(dp3612
sI120181
(dp3613
sI120182
(dp3614
sI120183
(dp3615
sI120184
(dp3616
sI120185
(dp3617
sI120186
(dp3618
sI120187
(dp3619
sI120188
(dp3620
sI120189
(dp3621
sI120190
(dp3622
sI120191
(dp3623
sI120192
(dp3624
sI120193
(dp3625
sI120194
(dp3626
sI120195
(dp3627
sI120196
(dp3628
sI120197
(dp3629
sI128390
(dp3630
sI120199
(dp3631
sI120200
(dp3632
sI120201
(dp3633
sI120202
(dp3634
sI120203
(dp3635
sI120204
(dp3636
sI120205
(dp3637
sI120206
(dp3638
sI120207
(dp3639
sI120208
(dp3640
sI120209
(dp3641
sI120210
(dp3642
sI120211
(dp3643
sI120212
(dp3644
sI120213
(dp3645
sI120214
(dp3646
sI120215
(dp3647
sI120216
(dp3648
sI120217
(dp3649
sI120218
(dp3650
sI120219
(dp3651
sI120221
(dp3652
sI120222
(dp3653
sI120223
(dp3654
sI120224
(dp3655
sI120225
(dp3656
sI120226
(dp3657
sI120227
(dp3658
sI128420
(dp3659
sI120229
(dp3660
sI120230
(dp3661
sI120231
(dp3662
sI120232
(dp3663
sI120233
(dp3664
sI120234
(dp3665
sI120235
(dp3666
sI120236
(dp3667
sI120237
(dp3668
sI120238
(dp3669
sI120239
(dp3670
sI120240
(dp3671
sI120241
(dp3672
sI137085
(dp3673
sI120243
(dp3674
sI120244
(dp3675
sI120245
(dp3676
sI120246
(dp3677
sI120247
(dp3678
sI120248
(dp3679
sI120249
(dp3680
sI120250
(dp3681
sI120251
(dp3682
sI120252
(dp3683
sI120253
(dp3684
sI120254
(dp3685
sI120255
(dp3686
sI120256
(dp3687
sI120257
(dp3688
sI120258
(dp3689
sI120259
(dp3690
sI120260
(dp3691
sI112069
(dp3692
sI120262
(dp3693
sI120263
(dp3694
sI120264
(dp3695
sI120265
(dp3696
sI120266
(dp3697
sI120267
(dp3698
sI120268
(dp3699
sI120269
(dp3700
sI120270
(dp3701
sI120271
(dp3702
sI120272
(dp3703
sI120273
(dp3704
sI120274
(dp3705
sI120275
(dp3706
sI120276
(dp3707
sI120277
(dp3708
sI136662
(dp3709
sI120279
(dp3710
sI120280
(dp3711
sI120281
(dp3712
sI120282
(dp3713
sI120283
(dp3714
sI120284
(dp3715
sI120285
(dp3716
sI120286
(dp3717
sI120287
(dp3718
sI120288
(dp3719
sI120289
(dp3720
sI120290
(dp3721
sI120291
(dp3722
sI120292
(dp3723
sI120293
(dp3724
sI120294
(dp3725
sI120295
(dp3726
sI120296
(dp3727
sI141564
(dp3728
sI120298
(dp3729
sI120299
(dp3730
sI120300
(dp3731
sI120301
(dp3732
sI120302
(dp3733
sI120303
(dp3734
sI120304
(dp3735
sI120305
(dp3736
sI120306
(dp3737
sI120307
(dp3738
sI120308
(dp3739
sI120309
(dp3740
sI120310
(dp3741
sI120311
(dp3742
sI120312
(dp3743
sI120313
(dp3744
sI120314
(dp3745
sI120315
(dp3746
sI120316
(dp3747
sI120317
(dp3748
sI120318
(dp3749
sI120319
(dp3750
sI120320
(dp3751
sI120321
(dp3752
sI120322
(dp3753
sI136707
(dp3754
sI120324
(dp3755
sI120325
(dp3756
sI120326
(dp3757
sI136711
(dp3758
sI120328
(dp3759
sI120329
(dp3760
sI120330
(dp3761
sI136715
(dp3762
sI120332
(dp3763
sI120333
(dp3764
sI120334
(dp3765
sI112143
(dp3766
sI120336
(dp3767
sI120337
(dp3768
sI112146
(dp3769
sI120339
(dp3770
sI120340
(dp3771
sI120341
(dp3772
sI120342
(dp3773
sI120343
(dp3774
sI120344
(dp3775
sI120345
(dp3776
sI120346
(dp3777
sI120347
(dp3778
sI120348
(dp3779
sI120349
(dp3780
sI120350
(dp3781
sI120351
(dp3782
sI120352
(dp3783
sI120353
(dp3784
sI120354
(dp3785
sI120355
(dp3786
sI120356
(dp3787
sI120357
(dp3788
sI120358
(dp3789
sI120359
(dp3790
sI120360
(dp3791
sI120361
(dp3792
sI120362
(dp3793
sI112171
(dp3794
sI120364
(dp3795
sI120365
(dp3796
sI120366
(dp3797
sI112175
(dp3798
sI120368
(dp3799
sI120369
(dp3800
sI120370
(dp3801
sI120371
(dp3802
sI120373
(dp3803
sI120374
(dp3804
sI120375
(dp3805
sI120376
(dp3806
sI120377
(dp3807
sI120378
(dp3808
sI120379
(dp3809
sI120380
(dp3810
sI120381
(dp3811
sI120382
(dp3812
sI120383
(dp3813
sI120384
(dp3814
sI120385
(dp3815
sI120386
(dp3816
sI120387
(dp3817
sI120388
(dp3818
sI120389
(dp3819
sI120390
(dp3820
sI120391
(dp3821
sI120393
(dp3822
sI120394
(dp3823
sI120395
(dp3824
sI120396
(dp3825
sI120397
(dp3826
sI120398
(dp3827
sI120399
(dp3828
sI120400
(dp3829
sI119736
(dp3830
sI112210
(dp3831
sI120403
(dp3832
sI120404
(dp3833
sI120405
(dp3834
sI120406
(dp3835
sI144983
(dp3836
sI120408
(dp3837
sI120409
(dp3838
sI120410
(dp3839
sI120411
(dp3840
sI120412
(dp3841
sI112221
(dp3842
sI120414
(dp3843
sI120415
(dp3844
sI120416
(dp3845
sI120417
(dp3846
sI120418
(dp3847
sI120419
(dp3848
sI120420
(dp3849
sI120421
(dp3850
sI120422
(dp3851
sI120423
(dp3852
sI120424
(dp3853
sI120425
(dp3854
sI120426
(dp3855
sI120427
(dp3856
sI120428
(dp3857
sI120429
(dp3858
sI120430
(dp3859
sI120431
(dp3860
sI120433
(dp3861
sI120434
(dp3862
sI120435
(dp3863
sI120436
(dp3864
sI120437
(dp3865
sI120438
(dp3866
sI120439
(dp3867
sI120440
(dp3868
sI120441
(dp3869
sI120442
(dp3870
sI120443
(dp3871
sI120444
(dp3872
sI120445
(dp3873
sI120446
(dp3874
sI120447
(dp3875
sI120448
(dp3876
sI120449
(dp3877
sI120450
(dp3878
sI120451
(dp3879
sI120453
(dp3880
sI120454
(dp3881
sI120455
(dp3882
sI120456
(dp3883
sI120457
(dp3884
sI120458
(dp3885
sI120459
(dp3886
sI112268
(dp3887
sI120461
(dp3888
sI120462
(dp3889
sI120463
(dp3890
sI120464
(dp3891
sI120465
(dp3892
sI120466
(dp3893
sI120467
(dp3894
sI120468
(dp3895
sI120469
(dp3896
sI120470
(dp3897
sI120471
(dp3898
sI120472
(dp3899
sI120473
(dp3900
sI120474
(dp3901
sI120475
(dp3902
sI120476
(dp3903
sI120477
(dp3904
sI120478
(dp3905
sI120479
(dp3906
sI120480
(dp3907
sI120481
(dp3908
sI120482
(dp3909
sI120483
(dp3910
sI120484
(dp3911
sI120485
(dp3912
sI120486
(dp3913
sI120487
(dp3914
sI120488
(dp3915
sI120489
(dp3916
sI120490
(dp3917
sI120491
(dp3918
sI120492
(dp3919
sI120493
(dp3920
sI120494
(dp3921
sI120495
(dp3922
sI120496
(dp3923
sI120497
(dp3924
sI120498
(dp3925
sI120499
(dp3926
sI120500
(dp3927
sI120501
(dp3928
sI120502
(dp3929
sI120503
(dp3930
sI120504
(dp3931
sI120505
(dp3932
sI120506
(dp3933
sI120507
(dp3934
sI120508
(dp3935
sI120509
(dp3936
sI120510
(dp3937
sI120511
(dp3938
sI120512
(dp3939
sI120513
(dp3940
sI120514
(dp3941
sI120515
(dp3942
sI120516
(dp3943
sI120517
(dp3944
sI120518
(dp3945
sI120519
(dp3946
sI120520
(dp3947
sI120521
(dp3948
sI120522
(dp3949
sI120523
(dp3950
sI120524
(dp3951
sI112333
(dp3952
sI120526
(dp3953
sI120527
(dp3954
sI120528
(dp3955
sI120529
(dp3956
sI120530
(dp3957
sI120531
(dp3958
sI120532
(dp3959
sI120533
(dp3960
sI120534
(dp3961
sI120535
(dp3962
sI120536
(dp3963
sI120537
(dp3964
sI120538
(dp3965
sI120539
(dp3966
sI120540
(dp3967
sI120541
(dp3968
sI120542
(dp3969
sI120543
(dp3970
sI120544
(dp3971
sI120545
(dp3972
sI120546
(dp3973
sI120547
(dp3974
sI120548
(dp3975
sI120549
(dp3976
sI120550
(dp3977
sI115665
(dp3978
sI120552
(dp3979
sI120553
(dp3980
sI120554
(dp3981
sI120555
(dp3982
sI120556
(dp3983
sI120557
(dp3984
sI120558
(dp3985
sI120559
(dp3986
sI120560
(dp3987
sI120561
(dp3988
sI120562
(dp3989
sI120563
(dp3990
sI120564
(dp3991
sI120565
(dp3992
sI120566
(dp3993
sI120567
(dp3994
sI120568
(dp3995
sI120569
(dp3996
sI120570
(dp3997
sI120571
(dp3998
sI120572
(dp3999
sI120573
(dp4000
sI120574
(dp4001
sI120575
(dp4002
sI120576
(dp4003
sI120577
(dp4004
sI120578
(dp4005
sI120579
(dp4006
sI120580
(dp4007
sI120581
(dp4008
sI120582
(dp4009
sI120583
(dp4010
sI120584
(dp4011
sI120585
(dp4012
sI120586
(dp4013
sI120587
(dp4014
sI120588
(dp4015
sI120589
(dp4016
sI120590
(dp4017
sI120591
(dp4018
sI120592
(dp4019
sI136977
(dp4020
sI120594
(dp4021
sI120595
(dp4022
sI120596
(dp4023
sI120597
(dp4024
sI120598
(dp4025
sI120599
(dp4026
sI120600
(dp4027
sI120601
(dp4028
sI120602
(dp4029
sI120603
(dp4030
sI112412
(dp4031
sI120605
(dp4032
sI120606
(dp4033
sI120607
(dp4034
sI120608
(dp4035
sI120609
(dp4036
sI120610
(dp4037
sI111579
(dp4038
sI120612
(dp4039
sI120613
(dp4040
sI120614
(dp4041
sI120615
(dp4042
sI120616
(dp4043
sI120617
(dp4044
sI120618
(dp4045
sI120619
(dp4046
sI120620
(dp4047
sI120621
(dp4048
sI120622
(dp4049
sI120623
(dp4050
sI120624
(dp4051
sI120625
(dp4052
sI120626
(dp4053
sI120627
(dp4054
sI120628
(dp4055
sI120629
(dp4056
sI120630
(dp4057
sI120631
(dp4058
sI120632
(dp4059
sI120633
(dp4060
sI120634
(dp4061
sI120635
(dp4062
sI120636
(dp4063
sI120637
(dp4064
sI120638
(dp4065
sI120639
(dp4066
sI120640
(dp4067
sI120641
(dp4068
sI120642
(dp4069
sI120643
(dp4070
sI120644
(dp4071
sI120645
(dp4072
sI120646
(dp4073
sI120647
(dp4074
sI120648
(dp4075
sI120649
(dp4076
sI120650
(dp4077
sI120651
(dp4078
sI120652
(dp4079
sI120653
(dp4080
sI120654
(dp4081
sI120655
(dp4082
sI120656
(dp4083
sI120657
(dp4084
sI120658
(dp4085
sI120659
(dp4086
sI120660
(dp4087
sI120661
(dp4088
sI120662
(dp4089
sI120663
(dp4090
sI120664
(dp4091
sI120665
(dp4092
sI120666
(dp4093
sI120667
(dp4094
sI120668
(dp4095
sI112477
(dp4096
sI120670
(dp4097
sI120671
(dp4098
sI120672
(dp4099
sI120673
(dp4100
sI120674
(dp4101
sI120675
(dp4102
sI120676
(dp4103
sI120677
(dp4104
sI120678
(dp4105
sI120679
(dp4106
sI120680
(dp4107
sI120681
(dp4108
sI120682
(dp4109
sI119783
(dp4110
sI120684
(dp4111
sI120685
(dp4112
sI120686
(dp4113
sI120687
(dp4114
sI120688
(dp4115
sI120689
(dp4116
sI120690
(dp4117
sI120691
(dp4118
sI120692
(dp4119
sI120693
(dp4120
sI120694
(dp4121
sI120695
(dp4122
sI120696
(dp4123
sI120697
(dp4124
sI120698
(dp4125
sI120699
(dp4126
sI120700
(dp4127
sI120701
(dp4128
sI120702
(dp4129
sI120703
(dp4130
sI120704
(dp4131
sI120705
(dp4132
sI120706
(dp4133
sI119787
(dp4134
sI120708
(dp4135
sI120709
(dp4136
sI120710
(dp4137
sI120711
(dp4138
sI120712
(dp4139
sI120713
(dp4140
sI120714
(dp4141
sI112523
(dp4142
sI120716
(dp4143
sI120717
(dp4144
sI120718
(dp4145
sI120719
(dp4146
sI120720
(dp4147
sI112529
(dp4148
sI120722
(dp4149
sI112531
(dp4150
sI120724
(dp4151
sI120725
(dp4152
sI120726
(dp4153
sI120727
(dp4154
sI120728
(dp4155
sI120729
(dp4156
sI120730
(dp4157
sI120731
(dp4158
sI120732
(dp4159
sI120733
(dp4160
sI120734
(dp4161
sI120735
(dp4162
sI112544
(dp4163
sI120737
(dp4164
sI120738
(dp4165
sI120739
(dp4166
sI120740
(dp4167
sI120741
(dp4168
sI120742
(dp4169
sI120743
(dp4170
sI120744
(dp4171
sI120745
(dp4172
sI120746
(dp4173
sI120747
(dp4174
sI120748
(dp4175
sI119794
(dp4176
sI120750
(dp4177
sI120751
(dp4178
sI120752
(dp4179
sI120753
(dp4180
sI120754
(dp4181
sI120755
(dp4182
sI120756
(dp4183
sI120757
(dp4184
sI120758
(dp4185
sI120759
(dp4186
sI120760
(dp4187
sI120761
(dp4188
sI112570
(dp4189
sI120763
(dp4190
sI120765
(dp4191
sI120766
(dp4192
sI120767
(dp4193
sI120768
(dp4194
sI120769
(dp4195
sI120770
(dp4196
sI120771
(dp4197
sI156234
(dp4198
sI120773
(dp4199
sI120774
(dp4200
sI120775
(dp4201
sI120776
(dp4202
sI120777
(dp4203
sI120778
(dp4204
sI120779
(dp4205
sI120780
(dp4206
sI120781
(dp4207
sI112590
(dp4208
sI120783
(dp4209
sI120784
(dp4210
sI120785
(dp4211
sI120786
(dp4212
sI120787
(dp4213
sI120788
(dp4214
sI120789
(dp4215
sI120790
(dp4216
sI120791
(dp4217
sI120792
(dp4218
sI120793
(dp4219
sI120794
(dp4220
sI120795
(dp4221
sI120796
(dp4222
sI120797
(dp4223
sI120798
(dp4224
sI120799
(dp4225
sI120800
(dp4226
sI120801
(dp4227
sI120802
(dp4228
sI120803
(dp4229
sI120804
(dp4230
sI120805
(dp4231
sI120806
(dp4232
sI120807
(dp4233
sI120808
(dp4234
sI120809
(dp4235
sI120810
(dp4236
sI120811
(dp4237
sI120812
(dp4238
sI120813
(dp4239
sI120814
(dp4240
sI120815
(dp4241
sI120816
(dp4242
sI120817
(dp4243
sI120818
(dp4244
sI120819
(dp4245
sI112628
(dp4246
sI112629
(dp4247
sI120822
(dp4248
sI120823
(dp4249
sI120824
(dp4250
sI120825
(dp4251
sI120826
(dp4252
sI120827
(dp4253
sI120828
(dp4254
sI120829
(dp4255
sI120830
(dp4256
sI120831
(dp4257
sI120832
(dp4258
sI120833
(dp4259
sI120834
(dp4260
sI120835
(dp4261
sI120836
(dp4262
sI120837
(dp4263
sI120838
(dp4264
sI120839
(dp4265
sI120840
(dp4266
sI120841
(dp4267
sI120842
(dp4268
sI120843
(dp4269
sI120844
(dp4270
sI120845
(dp4271
sI120846
(dp4272
sI120847
(dp4273
sI120848
(dp4274
sI120849
(dp4275
sI120850
(dp4276
sI112659
(dp4277
sI112660
(dp4278
sI120853
(dp4279
sI120854
(dp4280
sI129047
(dp4281
sI112664
(dp4282
sI129049
(dp4283
sI129050
(dp4284
sI129051
(dp4285
sI129052
(dp4286
sI129053
(dp4287
sI129054
(dp4288
sI129055
(dp4289
sI112672
(dp4290
sI129057
(dp4291
sI129058
(dp4292
sI129059
(dp4293
sI129060
(dp4294
sI129061
(dp4295
sI129062
(dp4296
sI129063
(dp4297
sI129064
(dp4298
sI129065
(dp4299
sI129066
(dp4300
sI128007
(dp4301
sI129068
(dp4302
sI129069
(dp4303
sI129070
(dp4304
sI129071
(dp4305
sI129072
(dp4306
sI111624
(dp4307
sI129074
(dp4308
sI129075
(dp4309
sI129076
(dp4310
sI129077
(dp4311
sI129078
(dp4312
sI129079
(dp4313
sI129080
(dp4314
sI112697
(dp4315
sI129082
(dp4316
sI129083
(dp4317
sI129084
(dp4318
sI129085
(dp4319
sI129086
(dp4320
sI129087
(dp4321
sI137280
(dp4322
sI137281
(dp4323
sI137282
(dp4324
sI137283
(dp4325
sI137284
(dp4326
sI137285
(dp4327
sI137286
(dp4328
sI129095
(dp4329
sI134413
(dp4330
sI129097
(dp4331
sI129098
(dp4332
sI112715
(dp4333
sI137292
(dp4334
sI137293
(dp4335
sI137294
(dp4336
sI137295
(dp4337
sI129104
(dp4338
sI129105
(dp4339
sI129106
(dp4340
sI129107
(dp4341
sI137300
(dp4342
sI129109
(dp4343
sI137302
(dp4344
sI129111
(dp4345
sI137304
(dp4346
sI137305
(dp4347
sI137195
(dp4348
sI137307
(dp4349
sI137308
(dp4350
sI137309
(dp4351
sI137310
(dp4352
sI137311
(dp4353
sI137312
(dp4354
sI111632
(dp4355
sI137314
(dp4356
sI137315
(dp4357
sI137316
(dp4358
sI137317
(dp4359
sI129126
(dp4360
sI129127
(dp4361
sI129128
(dp4362
sI129129
(dp4363
sI129130
(dp4364
sI129131
(dp4365
sI129132
(dp4366
sI129133
(dp4367
sI129134
(dp4368
sI129135
(dp4369
sI129136
(dp4370
sI129137
(dp4371
sI129138
(dp4372
sI120947
(dp4373
sI119687
(dp4374
sI129141
(dp4375
sI129142
(dp4376
sI137335
(dp4377
sI129144
(dp4378
sI129145
(dp4379
sI129146
(dp4380
sI129147
(dp4381
sI129148
(dp4382
sI129149
(dp4383
sI129150
(dp4384
sI129151
(dp4385
sI129152
(dp4386
sI129153
(dp4387
sI129154
(dp4388
sI129155
(dp4389
sI112772
(dp4390
sI137349
(dp4391
sI137350
(dp4392
sI134849
(dp4393
sI137352
(dp4394
sI120969
(dp4395
sI137354
(dp4396
sI137355
(dp4397
sI137356
(dp4398
sI120973
(dp4399
sI137358
(dp4400
sI137359
(dp4401
sI137365
(dp4402
sI137366
(dp4403
sI137368
(dp4404
sI137369
(dp4405
sI137370
(dp4406
sI137371
(dp4407
sI137372
(dp4408
sI137373
(dp4409
sI137374
(dp4410
sI137375
(dp4411
sI120992
(dp4412
sI137184
(dp4413
sI137378
(dp4414
sI137379
(dp4415
sI112804
(dp4416
sI120998
(dp4417
sI137196
(dp4418
sI121001
(dp4419
sI155508
(dp4420
sI135613
(dp4421
sI121009
(dp4422
sI121010
(dp4423
sI121011
(dp4424
sI121012
(dp4425
sI121013
(dp4426
sI143967
(dp4427
sI135511
(dp4428
sI138955
(dp4429
sI128033
(dp4430
sI136226
(dp4431
sI159437
(dp4432
sI159438
(dp4433
sI137593
(dp4434
sI125146
(dp4435
sI148544
(dp4436
sI154327
(dp4437
sI112862
(dp4438
sI135512
(dp4439
sI136230
(dp4440
sI139049
(dp4441
sI147944
(dp4442
sI111656
(dp4443
sI137459
(dp4444
sI137463
(dp4445
sI147835
(dp4446
sI137142
(dp4447
sI129274
(dp4448
sI154335
(dp4449
sI112896
(dp4450
sI136235
(dp4451
sI139605
(dp4452
sI121096
(dp4453
sI144428
(dp4454
sI148607
(dp4455
sI112909
(dp4456
sI112911
(dp4457
sI112912
(dp4458
sI133507
(dp4459
sI150517
(dp4460
sI135514
(dp4461
sI129309
(dp4462
sI158155
(dp4463
sI144180
(dp4464
sI138971
(dp4465
sI112933
(dp4466
sI129326
(dp4467
sI138973
(dp4468
sI138974
(dp4469
sI121144
(dp4470
sI111668
(dp4471
sI144438
(dp4472
sI148535
(dp4473
sI129356
(dp4474
sI121165
(dp4475
sI129358
(dp4476
sI129360
(dp4477
sI128056
(dp4478
sI129363
(dp4479
sI129364
(dp4480
sI129365
(dp4481
sI129366
(dp4482
sI129367
(dp4483
sI131970
(dp4484
sI159794
(dp4485
sI141713
(dp4486
sI121202
(dp4487
sI137589
(dp4488
sI137590
(dp4489
sI137591
(dp4490
sI137592
(dp4491
sI129401
(dp4492
sI137594
(dp4493
sI137595
(dp4494
sI137596
(dp4495
sI137597
(dp4496
sI137598
(dp4497
sI137599
(dp4498
sI137600
(dp4499
sI137601
(dp4500
sI157340
(dp4501
sI153237
(dp4502
sI129415
(dp4503
sI113032
(dp4504
sI138791
(dp4505
sI129419
(dp4506
sI136999
(dp4507
sI125152
(dp4508
sI113038
(dp4509
sI132790
(dp4510
sI131972
(dp4511
sI144453
(dp4512
sI136052
(dp4513
sI138993
(dp4514
sI113066
(dp4515
sI113067
(dp4516
sI129452
(dp4517
sI136610
(dp4518
sI137974
(dp4519
sI113076
(dp4520
sI113077
(dp4521
sI113078
(dp4522
sI113079
(dp4523
sI113080
(dp4524
sI133535
(dp4525
sI113086
(dp4526
sI113090
(dp4527
sI137670
(dp4528
sI156524
(dp4529
sI152864
(dp4530
sI150666
(dp4531
sI113101
(dp4532
sI140144
(dp4533
sI129487
(dp4534
sI121298
(dp4535
sI121299
(dp4536
sI129493
(dp4537
sI159629
(dp4538
sI121311
(dp4539
sI159948
(dp4540
sI145897
(dp4541
sI121325
(dp4542
sI145904
(dp4543
sI129522
(dp4544
sI136276
(dp4545
sI156235
(dp4546
sI134911
(dp4547
sI129534
(dp4548
sI129535
(dp4549
sI137732
(dp4550
sI129542
(dp4551
sI136279
(dp4552
sI113165
(dp4553
sI129554
(dp4554
sI129555
(dp4555
sI129556
(dp4556
sI129561
(dp4557
sI129562
(dp4558
sI113183
(dp4559
sI121377
(dp4560
sI127885
(dp4561
sI137769
(dp4562
sI128093
(dp4563
sI157073
(dp4564
sI129586
(dp4565
sI121396
(dp4566
sI128094
(dp4567
sI154167
(dp4568
sI136069
(dp4569
sI129593
(dp4570
sI129594
(dp4571
sI128095
(dp4572
sI129596
(dp4573
sI113213
(dp4574
sI129598
(dp4575
sI129600
(dp4576
sI129601
(dp4577
sI129602
(dp4578
sI129603
(dp4579
sI113220
(dp4580
sI149163
(dp4581
sI113222
(dp4582
sI113223
(dp4583
sI113224
(dp4584
sI158135
(dp4585
sI128098
(dp4586
sI144526
(dp4587
sI141957
(dp4588
sI111715
(dp4589
sI148139
(dp4590
sI134926
(dp4591
sI141753
(dp4592
sI128100
(dp4593
sI144899
(dp4594
sI158138
(dp4595
sI129631
(dp4596
sI129636
(dp4597
sI128102
(dp4598
sI134929
(dp4599
sI128103
(dp4600
sI137837
(dp4601
sI128104
(dp4602
sI158927
(dp4603
sI129652
(dp4604
sI154230
(dp4605
sI121476
(dp4606
sI121477
(dp4607
sI121478
(dp4608
sI121479
(dp4609
sI121480
(dp4610
sI121481
(dp4611
sI136981
(dp4612
sI124013
(dp4613
sI121490
(dp4614
sI121491
(dp4615
sI121492
(dp4616
sI121493
(dp4617
sI121494
(dp4618
sI121495
(dp4619
sI121496
(dp4620
sI121497
(dp4621
sI121498
(dp4622
sI121499
(dp4623
sI113309
(dp4624
sI121502
(dp4625
sI137887
(dp4626
sI135399
(dp4627
sI128112
(dp4628
sI139035
(dp4629
sI151894
(dp4630
sI113318
(dp4631
sI128113
(dp4632
sI139036
(dp4633
sI137899
(dp4634
sI128114
(dp4635
sI121518
(dp4636
sI121519
(dp4637
sI121520
(dp4638
sI121521
(dp4639
sI129714
(dp4640
sI128115
(dp4641
sI129716
(dp4642
sI129717
(dp4643
sI129718
(dp4644
sI129719
(dp4645
sI129720
(dp4646
sI128116
(dp4647
sI128981
(dp4648
sI129723
(dp4649
sI129724
(dp4650
sI129725
(dp4651
sI129726
(dp4652
sI128117
(dp4653
sI129728
(dp4654
sI129729
(dp4655
sI121538
(dp4656
sI121539
(dp4657
sI129732
(dp4658
sI128118
(dp4659
sI129734
(dp4660
sI129735
(dp4661
sI129736
(dp4662
sI129737
(dp4663
sI129738
(dp4664
sI129739
(dp4665
sI129740
(dp4666
sI154318
(dp4667
sI154319
(dp4668
sI154320
(dp4669
sI128120
(dp4670
sI154322
(dp4671
sI154323
(dp4672
sI154324
(dp4673
sI154325
(dp4674
sI154326
(dp4675
sI128121
(dp4676
sI128982
(dp4677
sI129753
(dp4678
sI129754
(dp4679
sI129755
(dp4680
sI129756
(dp4681
sI129758
(dp4682
sI129759
(dp4683
sI129760
(dp4684
sI129761
(dp4685
sI129762
(dp4686
sI129763
(dp4687
sI129764
(dp4688
sI129765
(dp4689
sI129766
(dp4690
sI129767
(dp4691
sI128124
(dp4692
sI129770
(dp4693
sI129771
(dp4694
sI129772
(dp4695
sI129773
(dp4696
sI121582
(dp4697
sI157700
(dp4698
sI132529
(dp4699
sI129778
(dp4700
sI129779
(dp4701
sI129780
(dp4702
sI121589
(dp4703
sI121590
(dp4704
sI121591
(dp4705
sI129784
(dp4706
sI129785
(dp4707
sI129786
(dp4708
sI129787
(dp4709
sI129788
(dp4710
sI129789
(dp4711
sI129790
(dp4712
sI157167
(dp4713
sI157604
(dp4714
sI128129
(dp4715
sI150725
(dp4716
sI142226
(dp4717
sI143714
(dp4718
sI129809
(dp4719
sI128131
(dp4720
sI155531
(dp4721
sI144441
(dp4722
sI128132
(dp4723
sI138010
(dp4724
sI138011
(dp4725
sI138012
(dp4726
sI128133
(dp4727
sI138017
(dp4728
sI156487
(dp4729
sI128134
(dp4730
sI129830
(dp4731
sI159537
(dp4732
sI154899
(dp4733
sI128135
(dp4734
sI113452
(dp4735
sI157627
(dp4736
sI148057
(dp4737
sI128136
(dp4738
sI128985
(dp4739
sI154419
(dp4740
sI128138
(dp4741
sI148353
(dp4742
sI128139
(dp4743
sI138054
(dp4744
sI153240
(dp4745
sI128140
(dp4746
sI138061
(dp4747
sI128141
(dp4748
sI145063
(dp4749
sI154449
(dp4750
sI154451
(dp4751
sI113493
(dp4752
sI154454
(dp4753
sI154355
(dp4754
sI128143
(dp4755
sI138076
(dp4756
sI146269
(dp4757
sI146272
(dp4758
sI128144
(dp4759
sI138082
(dp4760
sI146275
(dp4761
sI136079
(dp4762
sI145275
(dp4763
sI146278
(dp4764
sI128145
(dp4765
sI146280
(dp4766
sI146281
(dp4767
sI146282
(dp4768
sI146283
(dp4769
sI146284
(dp4770
sI128146
(dp4771
sI146286
(dp4772
sI146288
(dp4773
sI146290
(dp4774
sI128147
(dp4775
sI146292
(dp4776
sI146293
(dp4777
sI146294
(dp4778
sI146295
(dp4779
sI146296
(dp4780
sI146297
(dp4781
sI154490
(dp4782
sI154491
(dp4783
sI154492
(dp4784
sI154493
(dp4785
sI129918
(dp4786
sI128149
(dp4787
sI154496
(dp4788
sI128150
(dp4789
sI154503
(dp4790
sI154504
(dp4791
sI150726
(dp4792
sI150092
(dp4793
sI128151
(dp4794
sI154508
(dp4795
sI138125
(dp4796
sI137087
(dp4797
sI154511
(dp4798
sI128152
(dp4799
sI156812
(dp4800
sI154357
(dp4801
sI154516
(dp4802
sI154517
(dp4803
sI129942
(dp4804
sI154519
(dp4805
sI146912
(dp4806
sI154523
(dp4807
sI128154
(dp4808
sI157358
(dp4809
sI113568
(dp4810
sI113569
(dp4811
sI128155
(dp4812
sI157631
(dp4813
sI113575
(dp4814
sI121770
(dp4815
sI128157
(dp4816
sI138161
(dp4817
sI154548
(dp4818
sI121784
(dp4819
sI155995
(dp4820
sI128159
(dp4821
sI129984
(dp4822
sI128160
(dp4823
sI129987
(dp4824
sI113604
(dp4825
sI113605
(dp4826
sI113606
(dp4827
sI128161
(dp4828
sI129992
(dp4829
sI129993
(dp4830
sI121802
(dp4831
sI121803
(dp4832
sI111778
(dp4833
sI144266
(dp4834
sI154359
(dp4835
sI113617
(dp4836
sI113618
(dp4837
sI128172
(dp4838
sI113620
(dp4839
sI155470
(dp4840
sI138199
(dp4841
sI138200
(dp4842
sI128164
(dp4843
sI113628
(dp4844
sI113629
(dp4845
sI128165
(dp4846
sI138208
(dp4847
sI155472
(dp4848
sI152723
(dp4849
sI128166
(dp4850
sI138216
(dp4851
sI128167
(dp4852
sI113644
(dp4853
sI154360
(dp4854
sI113646
(dp4855
sI113647
(dp4856
sI113648
(dp4857
sI113649
(dp4858
sI138226
(dp4859
sI113651
(dp4860
sI113652
(dp4861
sI113653
(dp4862
sI155476
(dp4863
sI138234
(dp4864
sI113659
(dp4865
sI128170
(dp4866
sI141267
(dp4867
sI128171
(dp4868
sI146436
(dp4869
sI124076
(dp4870
sI113674
(dp4871
sI154361
(dp4872
sI138252
(dp4873
sI113677
(dp4874
sI130062
(dp4875
sI128173
(dp4876
sI155480
(dp4877
sI130066
(dp4878
sI138259
(dp4879
sI128175
(dp4880
sI138269
(dp4881
sI128176
(dp4882
sI138275
(dp4883
sI138276
(dp4884
sI128177
(dp4885
sI135540
(dp4886
sI128178
(dp4887
sI147293
(dp4888
sI146481
(dp4889
sI146482
(dp4890
sI128179
(dp4891
sI143198
(dp4892
sI138294
(dp4893
sI138295
(dp4894
sI138296
(dp4895
sI128180
(dp4896
sI138299
(dp4897
sI128181
(dp4898
sI138304
(dp4899
sI150027
(dp4900
sI138309
(dp4901
sI154694
(dp4902
sI151908
(dp4903
sI128183
(dp4904
sI137178
(dp4905
sI128184
(dp4906
sI154707
(dp4907
sI138324
(dp4908
sI138326
(dp4909
sI128185
(dp4910
sI138328
(dp4911
sI138329
(dp4912
sI138330
(dp4913
sI138332
(dp4914
sI128186
(dp4915
sI138334
(dp4916
sI113759
(dp4917
sI113762
(dp4918
sI128187
(dp4919
sI154364
(dp4920
sI113767
(dp4921
sI128188
(dp4922
sI146539
(dp4923
sI146540
(dp4924
sI146541
(dp4925
sI137179
(dp4926
sI128189
(dp4927
sI155504
(dp4928
sI143726
(dp4929
sI113786
(dp4930
sI128191
(dp4931
sI149141
(dp4932
sI128192
(dp4933
sI113796
(dp4934
sI128193
(dp4935
sI130184
(dp4936
sI130185
(dp4937
sI130186
(dp4938
sI130187
(dp4939
sI130188
(dp4940
sI128194
(dp4941
sI159717
(dp4942
sI128195
(dp4943
sI149297
(dp4944
sI135407
(dp4945
sI130199
(dp4946
sI130200
(dp4947
sI128196
(dp4948
sI130202
(dp4949
sI130203
(dp4950
sI130204
(dp4951
sI130205
(dp4952
sI130206
(dp4953
sI120005
(dp4954
sI130208
(dp4955
sI130209
(dp4956
sI130210
(dp4957
sI144186
(dp4958
sI128198
(dp4959
sI138406
(dp4960
sI146600
(dp4961
sI139636
(dp4962
sI137181
(dp4963
sI128199
(dp4964
sI155506
(dp4965
sI120008
(dp4966
sI154802
(dp4967
sI155507
(dp4968
sI138818
(dp4969
sI130229
(dp4970
sI154806
(dp4971
sI120009
(dp4972
sI130233
(dp4973
sI113850
(dp4974
sI128203
(dp4975
sI140222
(dp4976
sI129569
(dp4977
sI137182
(dp4978
sI128204
(dp4979
sI138442
(dp4980
sI122060
(dp4981
sI138446
(dp4982
sI113871
(dp4983
sI146641
(dp4984
sI144267
(dp4985
sI133667
(dp4986
sI133909
(dp4987
sI128206
(dp4988
sI147321
(dp4989
sI139597
(dp4990
sI138457
(dp4991
sI130266
(dp4992
sI128207
(dp4993
sI130273
(dp4994
sI154852
(dp4995
sI154853
(dp4996
sI154855
(dp4997
sI154856
(dp4998
sI130281
(dp4999
sI154858
(dp5000
sI154859
(dp5001
sI154860
(dp5002
sI122093
(dp5003
sI122097
(dp5004
sI128211
(dp5005
sI128212
(dp5006
sI149459
(dp5007
sI128213
(dp5008
sI138497
(dp5009
sI138498
(dp5010
sI154884
(dp5011
sI128214
(dp5012
sI110465
(dp5013
sI128215
(dp5014
sI155522
(dp5015
sI113934
(dp5016
sI128216
(dp5017
sI126851
(dp5018
sI146708
(dp5019
sI122134
(dp5020
sI128217
(dp5021
sI113944
(dp5022
sI113945
(dp5023
sI113946
(dp5024
sI122141
(dp5025
sI122142
(dp5026
sI142441
(dp5027
sI122145
(dp5028
sI122146
(dp5029
sI128219
(dp5030
sI144823
(dp5031
sI128220
(dp5032
sI122159
(dp5033
sI145511
(dp5034
sI122165
(dp5035
sI110473
(dp5036
sI128223
(dp5037
sI110474
(dp5038
sI128224
(dp5039
sI122179
(dp5040
sI155305
(dp5041
sI128225
(dp5042
sI113996
(dp5043
sI128226
(dp5044
sI126861
(dp5045
sI128227
(dp5046
sI154966
(dp5047
sI151917
(dp5048
sI138584
(dp5049
sI128228
(dp5050
sI114012
(dp5051
sI122205
(dp5052
sI128229
(dp5053
sI130401
(dp5054
sI154978
(dp5055
sI129595
(dp5056
sI138596
(dp5057
sI128230
(dp5058
sI154982
(dp5059
sI138600
(dp5060
sI154986
(dp5061
sI128231
(dp5062
sI155538
(dp5063
sI125501
(dp5064
sI128232
(dp5065
sI130418
(dp5066
sI138612
(dp5067
sI122229
(dp5068
sI128233
(dp5069
sI114045
(dp5070
sI148228
(dp5071
sI155009
(dp5072
sI155010
(dp5073
sI128235
(dp5074
sI114055
(dp5075
sI130440
(dp5076
sI128236
(dp5077
sI130443
(dp5078
sI137180
(dp5079
sI130446
(dp5080
sI128237
(dp5081
sI140121
(dp5082
sI130450
(dp5083
sI128238
(dp5084
sI148373
(dp5085
sI129604
(dp5086
sI128239
(dp5087
sI141893
(dp5088
sI153034
(dp5089
sI128240
(dp5090
sI129606
(dp5091
sI114087
(dp5092
sI122284
(dp5093
sI128242
(dp5094
sI130482
(dp5095
sI156183
(dp5096
sI143262
(dp5097
sI138678
(dp5098
sI138679
(dp5099
sI138680
(dp5100
sI128244
(dp5101
sI130490
(dp5102
sI114107
(dp5103
sI138684
(dp5104
sI122301
(dp5105
sI138686
(dp5106
sI128245
(dp5107
sI130499
(dp5108
sI128246
(dp5109
sI114118
(dp5110
sI114119
(dp5111
sI114120
(dp5112
sI114121
(dp5113
sI114122
(dp5114
sI138009
(dp5115
sI154267
(dp5116
sI151921
(dp5117
sI155089
(dp5118
sI122325
(dp5119
sI155094
(dp5120
sI114136
(dp5121
sI114137
(dp5122
sI114138
(dp5123
sI114142
(dp5124
sI114143
(dp5125
sI114144
(dp5126
sI114145
(dp5127
sI114146
(dp5128
sI114147
(dp5129
sI114148
(dp5130
sI138725
(dp5131
sI146919
(dp5132
sI155468
(dp5133
sI151922
(dp5134
sI155120
(dp5135
sI144461
(dp5136
sI114165
(dp5137
sI150100
(dp5138
sI155130
(dp5139
sI138747
(dp5140
sI155132
(dp5141
sI146941
(dp5142
sI156027
(dp5143
sI114178
(dp5144
sI155140
(dp5145
sI114182
(dp5146
sI137066
(dp5147
sI155129
(dp5148
sI155146
(dp5149
sI139375
(dp5150
sI122380
(dp5151
sI138766
(dp5152
sI138767
(dp5153
sI128259
(dp5154
sI128261
(dp5155
sI128262
(dp5156
sI146982
(dp5157
sI114215
(dp5158
sI114216
(dp5159
sI114217
(dp5160
sI128263
(dp5161
sI128264
(dp5162
sI128265
(dp5163
sI130620
(dp5164
sI140097
(dp5165
sI137077
(dp5166
sI128267
(dp5167
sI147014
(dp5168
sI114247
(dp5169
sI128268
(dp5170
sI152645
(dp5171
sI128269
(dp5172
sI148226
(dp5173
sI128270
(dp5174
sI122454
(dp5175
sI147033
(dp5176
sI130650
(dp5177
sI120079
(dp5178
sI152045
(dp5179
sI147039
(dp5180
sI138848
(dp5181
sI128272
(dp5182
sI138850
(dp5183
sI138851
(dp5184
sI138852
(dp5185
sI138853
(dp5186
sI138854
(dp5187
sI128273
(dp5188
sI130664
(dp5189
sI130666
(dp5190
sI130667
(dp5191
sI128274
(dp5192
sI147055
(dp5193
sI155248
(dp5194
sI155250
(dp5195
sI128275
(dp5196
sI155252
(dp5197
sI155253
(dp5198
sI136378
(dp5199
sI128276
(dp5200
sI126911
(dp5201
sI155261
(dp5202
sI128277
(dp5203
sI155264
(dp5204
sI114305
(dp5205
sI122498
(dp5206
sI155267
(dp5207
sI155268
(dp5208
sI114309
(dp5209
sI114310
(dp5210
sI138887
(dp5211
sI138888
(dp5212
sI122505
(dp5213
sI138890
(dp5214
sI128279
(dp5215
sI114316
(dp5216
sI114318
(dp5217
sI150125
(dp5218
sI122512
(dp5219
sI128280
(dp5220
sI155282
(dp5221
sI122515
(dp5222
sI122517
(dp5223
sI152331
(dp5224
sI138903
(dp5225
sI138904
(dp5226
sI114329
(dp5227
sI145326
(dp5228
sI150127
(dp5229
sI114332
(dp5230
sI128282
(dp5231
sI128283
(dp5232
sI147109
(dp5233
sI128284
(dp5234
sI147114
(dp5235
sI136848
(dp5236
sI114350
(dp5237
sI128285
(dp5238
sI130738
(dp5239
sI130739
(dp5240
sI114356
(dp5241
sI128286
(dp5242
sI130742
(dp5243
sI130743
(dp5244
sI130745
(dp5245
sI142927
(dp5246
sI120095
(dp5247
sI128288
(dp5248
sI128197
(dp5249
sI114372
(dp5250
sI130757
(dp5251
sI114377
(dp5252
sI114378
(dp5253
sI125559
(dp5254
sI135467
(dp5255
sI128290
(dp5256
sI147565
(dp5257
sI120099
(dp5258
sI149318
(dp5259
sI128292
(dp5260
sI114395
(dp5261
sI114397
(dp5262
sI114398
(dp5263
sI128293
(dp5264
sI147169
(dp5265
sI120102
(dp5266
sI114406
(dp5267
sI125564
(dp5268
sI138986
(dp5269
sI120103
(dp5270
sI114414
(dp5271
sI128296
(dp5272
sI157221
(dp5273
sI141950
(dp5274
sI128297
(dp5275
sI147192
(dp5276
sI139220
(dp5277
sI133759
(dp5278
sI128298
(dp5279
sI147198
(dp5280
sI139221
(dp5281
sI141952
(dp5282
sI114435
(dp5283
sI141953
(dp5284
sI128300
(dp5285
sI147567
(dp5286
sI141954
(dp5287
sI128301
(dp5288
sI141955
(dp5289
sI128302
(dp5290
sI147222
(dp5291
sI154387
(dp5292
sI133764
(dp5293
sI139034
(dp5294
sI128303
(dp5295
sI128200
(dp5296
sI139037
(dp5297
sI139038
(dp5298
sI133765
(dp5299
sI147239
(dp5300
sI139048
(dp5301
sI114473
(dp5302
sI133767
(dp5303
sI139052
(dp5304
sI130862
(dp5305
sI130863
(dp5306
sI139057
(dp5307
sI130866
(dp5308
sI130867
(dp5309
sI147252
(dp5310
sI143326
(dp5311
sI152101
(dp5312
sI154249
(dp5313
sI128201
(dp5314
sI114492
(dp5315
sI156025
(dp5316
sI139074
(dp5317
sI147573
(dp5318
sI130894
(dp5319
sI130896
(dp5320
sI129293
(dp5321
sI155479
(dp5322
sI139096
(dp5323
sI155481
(dp5324
sI155482
(dp5325
sI114523
(dp5326
sI114525
(dp5327
sI139456
(dp5328
sI152735
(dp5329
sI122720
(dp5330
sI147297
(dp5331
sI157489
(dp5332
sI147300
(dp5333
sI147570
(dp5334
sI147302
(dp5335
sI155495
(dp5336
sI120124
(dp5337
sI147311
(dp5338
sI144868
(dp5339
sI155505
(dp5340
sI148116
(dp5341
sI137875
(dp5342
sI147392
(dp5343
sI155509
(dp5344
sI155510
(dp5345
sI155511
(dp5346
sI155512
(dp5347
sI130937
(dp5348
sI155514
(dp5349
sI136511
(dp5350
sI155516
(dp5351
sI137877
(dp5352
sI155520
(dp5353
sI152986
(dp5354
sI149298
(dp5355
sI155523
(dp5356
sI155524
(dp5357
sI152538
(dp5358
sI139142
(dp5359
sI155527
(dp5360
sI155528
(dp5361
sI155529
(dp5362
sI155530
(dp5363
sI147339
(dp5364
sI155532
(dp5365
sI155533
(dp5366
sI155536
(dp5367
sI147137
(dp5368
sI147349
(dp5369
sI155542
(dp5370
sI155543
(dp5371
sI114584
(dp5372
sI114585
(dp5373
sI155546
(dp5374
sI147355
(dp5375
sI147356
(dp5376
sI147357
(dp5377
sI128097
(dp5378
sI139171
(dp5379
sI147364
(dp5380
sI148567
(dp5381
sI130986
(dp5382
sI147901
(dp5383
sI121501
(dp5384
sI130992
(dp5385
sI128205
(dp5386
sI122803
(dp5387
sI114612
(dp5388
sI122805
(dp5389
sI130998
(dp5390
sI147384
(dp5391
sI147385
(dp5392
sI147387
(dp5393
sI148283
(dp5394
sI114623
(dp5395
sI139200
(dp5396
sI131009
(dp5397
sI147396
(dp5398
sI156805
(dp5399
sI114633
(dp5400
sI114636
(dp5401
sI131022
(dp5402
sI120141
(dp5403
sI139216
(dp5404
sI139217
(dp5405
sI139218
(dp5406
sI139219
(dp5407
sI122836
(dp5408
sI122837
(dp5409
sI122838
(dp5410
sI122839
(dp5411
sI131033
(dp5412
sI152911
(dp5413
sI114652
(dp5414
sI114653
(dp5415
sI139230
(dp5416
sI149560
(dp5417
sI157537
(dp5418
sI135408
(dp5419
sI152913
(dp5420
sI131048
(dp5421
sI131049
(dp5422
sI148973
(dp5423
sI131052
(dp5424
sI114669
(dp5425
sI139247
(dp5426
sI128534
(dp5427
sI139249
(dp5428
sI139250
(dp5429
sI139251
(dp5430
sI139262
(dp5431
sI122871
(dp5432
sI122872
(dp5433
sI122873
(dp5434
sI122874
(dp5435
sI122875
(dp5436
sI122876
(dp5437
sI122877
(dp5438
sI122878
(dp5439
sI122879
(dp5440
s.