(dp1
I16512
(dp2
sI16641
(dp3
sI15746
(dp4
sI15620
(dp5
sI19168
(dp6
sI16648
(dp7
sI16691
(dp8
sI18251
(dp9
sI16258
(dp10
sI16877
(dp11
sI16964
(dp12
sI18833
(dp13
sI16963
(dp14
sI18034
(dp15
sI16407
(dp16
sI16536
(dp17
sI16537
(dp18
sI17267
(dp19
sI15773
(dp20
sI15007
(dp21
sI16672
(dp22
sI15522
(dp23
sI18139
(dp24
sI15268
(dp25
sI15397
(dp26
sI16295
(dp27
sI16425
(dp28
sI15275
(dp29
sI16498
(dp30
sI16432
(dp31
sI15027
(dp32
sI15028
(dp33
sI15029
(dp34
sI17335
(dp35
sI17976
(dp36
sI19316
(dp37
sI17982
(dp38
sI17599
(dp39
sI18880
(dp40
sI17985
(dp41
sI16066
(dp42
sI16067
(dp43
sI16068
(dp44
sI16965
(dp45
sI16070
(dp46
sI19912
(dp47
sI16329
(dp48
sI16075
(dp49
sI15564
(dp50
sI15458
(dp51
sI16336
(dp52
sI16339
(dp53
sI16980
(dp54
sI16213
(dp55
sI19513
(dp56
sI19895
(dp57
sI16219
(dp58
sI19293
(dp59
sI16223
(dp60
sI16224
(dp61
sI19408
(dp62
sI15330
(dp63
sI18963
(dp64
sI19635
(dp65
sI18024
(dp66
sI16626
(dp67
sI16108
(dp68
sI16109
(dp69
sI15086
(dp70
sI19567
(dp71
sI15858
(dp72
sI17139
(dp73
sI15860
(dp74
sI18168
(dp75
sI19519
(dp76
sI15999
(dp77
s.