(dp1
I160768
(dp2
sI160769
(dp3
sI164267
(dp4
sI161281
(dp5
sI169291
(dp6
sI160855
(dp7
sI163340
(dp8
sI161293
(dp9
sI161709
(dp10
sI160784
(dp11
sI168197
(dp12
sI163346
(dp13
sI169380
(dp14
sI162649
(dp15
sI160793
(dp16
sI161306
(dp17
sI163077
(dp18
sI161079
(dp19
sI163874
(dp20
sI162852
(dp21
sI161321
(dp22
sI161834
(dp23
sI161287
(dp24
sI163023
(dp25
sI163933
(dp26
sI164400
(dp27
sI168499
(dp28
sI160826
(dp29
sI160827
(dp30
sI164413
(dp31
sI163902
(dp32
sI164415
(dp33
sI168248
(dp34
sI163905
(dp35
sI164932
(dp36
sI164422
(dp37
sI161677
(dp38
sI161353
(dp39
sI165474
(dp40
sI164946
(dp41
sI161363
(dp42
sI161367
(dp43
sI168247
(dp44
sI163929
(dp45
sI168071
(dp46
sI161373
(dp47
sI166980
(dp48
sI163937
(dp49
sI163938
(dp50
sI164451
(dp51
sI165988
(dp52
sI169830
(dp53
sI167014
(dp54
sI163946
(dp55
sI163947
(dp56
sI163948
(dp57
sI164973
(dp58
sI166510
(dp59
sI168893
(dp60
sI160881
(dp61
sI166514
(dp62
sI167699
(dp63
sI166517
(dp64
sI161911
(dp65
sI160889
(dp66
sI166353
(dp67
sI161403
(dp68
sI163965
(dp69
sI160895
(dp70
sI165056
(dp71
sI164715
(dp72
sI160900
(dp73
sI162437
(dp74
sI164801
(dp75
sI160904
(dp76
sI168586
(dp77
sI160907
(dp78
sI160908
(dp79
sI160909
(dp80
sI164697
(dp81
sI164758
(dp82
sI162583
(dp83
sI168728
(dp84
sI160914
(dp85
sI160915
(dp86
sI164747
(dp87
sI163989
(dp88
sI163990
(dp89
sI160919
(dp90
sI163992
(dp91
sI163993
(dp92
sI163994
(dp93
sI163995
(dp94
sI169387
(dp95
sI161440
(dp96
sI169011
(dp97
sI161954
(dp98
sI160931
(dp99
sI166052
(dp100
sI162470
(dp101
sI161447
(dp102
sI160936
(dp103
sI162473
(dp104
sI164013
(dp105
sI165039
(dp106
sI165197
(dp107
sI164017
(dp108
sI161974
(dp109
sI162999
(dp110
sI165585
(dp111
sI164761
(dp112
sI161980
(dp113
sI160957
(dp114
sI164684
(dp115
sI165058
(dp116
sI165059
(dp117
sI161613
(dp118
sI160969
(dp119
sI167627
(dp120
sI169676
(dp121
sI161487
(dp122
sI161488
(dp123
sI160977
(dp124
sI161490
(dp125
sI161491
(dp126
sI163031
(dp127
sI162522
(dp128
sI162523
(dp129
sI161501
(dp130
sI161503
(dp131
sI165072
(dp132
sI160995
(dp133
sI160996
(dp134
sI160997
(dp135
sI160998
(dp136
sI160999
(dp137
sI163049
(dp138
sI161006
(dp139
sI161007
(dp140
sI162033
(dp141
sI164595
(dp142
sI166644
(dp143
sI164597
(dp144
sI163369
(dp145
sI165911
(dp146
sI164601
(dp147
sI164602
(dp148
sI164604
(dp149
sI164608
(dp150
sI164769
(dp151
sI161026
(dp152
sI161027
(dp153
sI161029
(dp154
sI162566
(dp155
sI164002
(dp156
sI164616
(dp157
sI161033
(dp158
sI161035
(dp159
sI161036
(dp160
sI161038
(dp161
sI164768
(dp162
sI161041
(dp163
sI161042
(dp164
sI166531
(dp165
sI164628
(dp166
sI160023
(dp167
sI164632
(dp168
sI168068
(dp169
sI165092
(dp170
sI164636
(dp171
sI165661
(dp172
sI168570
(dp173
sI164770
(dp174
sI165075
(dp175
sI168737
(dp176
sI169171
(dp177
sI162596
(dp178
sI162598
(dp179
sI163111
(dp180
sI167720
(dp181
sI164651
(dp182
sI164650
(dp183
sI160043
(dp184
sI166188
(dp185
sI160047
(dp186
sI164659
(dp187
sI165685
(dp188
sI161078
(dp189
sI160055
(dp190
sI167731
(dp191
sI168249
(dp192
sI160058
(dp193
sI163807
(dp194
sI161084
(dp195
sI169789
(dp196
sI165227
(dp197
sI161090
(dp198
sI162443
(dp199
sI169007
(dp200
sI160583
(dp201
sI165705
(dp202
sI167769
(dp203
sI161611
(dp204
sI161612
(dp205
sI161101
(dp206
sI161615
(dp207
sI165713
(dp208
sI161618
(dp209
sI163811
(dp210
sI161620
(dp211
sI161623
(dp212
sI161112
(dp213
sI161113
(dp214
sI161114
(dp215
sI165211
(dp216
sI168250
(dp217
sI164766
(dp218
sI168251
(dp219
sI167780
(dp220
sI168805
(dp221
sI165734
(dp222
sI164711
(dp223
sI164713
(dp224
sI162155
(dp225
sI165228
(dp226
sI167793
(dp227
sI161427
(dp228
sI162677
(dp229
sI168825
(dp230
sI168824
(dp231
sI162169
(dp232
sI162682
(dp233
sI162172
(dp234
sI164330
(dp235
sI164735
(dp236
sI162176
(dp237
sI162689
(dp238
sI165251
(dp239
sI166276
(dp240
sI161669
(dp241
sI163529
(dp242
sI161675
(dp243
sI160141
(dp244
sI169870
(dp245
sI169453
(dp246
sI165016
(dp247
sI164755
(dp248
sI164756
(dp249
sI164757
(dp250
sI161686
(dp251
sI162199
(dp252
sI164760
(dp253
sI161177
(dp254
sI164762
(dp255
sI164763
(dp256
sI164764
(dp257
sI162206
(dp258
sI164767
(dp259
sI161184
(dp260
sI161697
(dp261
sI161698
(dp262
sI161700
(dp263
sI161702
(dp264
sI165361
(dp265
sI169437
(dp266
sI161706
(dp267
sI161095
(dp268
sI161197
(dp269
sI161710
(dp270
sI161199
(dp271
sI169392
(dp272
sI163912
(dp273
sI165313
(dp274
sI162227
(dp275
sI164277
(dp276
sI161718
(dp277
sI161865
(dp278
sI164280
(dp279
sI167668
(dp280
sI161722
(dp281
sI164283
(dp282
sI169744
(dp283
sI161725
(dp284
sI164997
(dp285
sI164256
(dp286
sI162755
(dp287
sI164805
(dp288
sI161734
(dp289
sI164295
(dp290
sI161737
(dp291
sI164599
(dp292
sI168339
(dp293
sI161741
(dp294
sI161230
(dp295
sI161231
(dp296
sI164305
(dp297
sI161746
(dp298
sI164307
(dp299
sI163797
(dp300
sI165336
(dp301
sI165337
(dp302
sI161243
(dp303
sI165015
(dp304
sI160733
(dp305
sI161759
(dp306
sI163808
(dp307
sI163810
(dp308
sI161763
(dp309
sI169107
(dp310
sI167692
(dp311
sI166618
(dp312
sI168188
(dp313
sI160746
(dp314
sI161259
(dp315
sI164332
(dp316
sI163154
(dp317
sI165358
(dp318
sI160751
(dp319
sI163825
(dp320
sI161784
(dp321
sI165204
(dp322
sI164859
(dp323
sI167079
(dp324
sI165887
(dp325
s.