(dp1
I22020
(dp2
sI24721
(dp3
sI23562
(dp4
sI23567
(dp5
sI21251
(dp6
sI24084
(dp7
sI22037
(dp8
sI24892
(dp9
sI24600
(dp10
sI22041
(dp11
sI22554
(dp12
sI22555
(dp13
sI22556
(dp14
sI23073
(dp15
sI24611
(dp16
sI23078
(dp17
sI21544
(dp18
sI21546
(dp19
sI21548
(dp20
sI21549
(dp21
sI23598
(dp22
sI21552
(dp23
sI21553
(dp24
sI21554
(dp25
sI21557
(dp26
sI23109
(dp27
sI23110
(dp28
sI24135
(dp29
sI24136
(dp30
sI22609
(dp31
sI23122
(dp32
sI22101
(dp33
sI24158
(dp34
sI24160
(dp35
sI24165
(dp36
sI24166
(dp37
sI20587
(dp38
sI24172
(dp39
sI24173
(dp40
sI21616
(dp41
sI21617
(dp42
sI21618
(dp43
sI23667
(dp44
sI23681
(dp45
sI22659
(dp46
sI24710
(dp47
sI22666
(dp48
sI23691
(dp49
sI23191
(dp50
sI23697
(dp51
sI23700
(dp52
sI20630
(dp53
sI22553
(dp54
sI23713
(dp55
sI24740
(dp56
sI20134
(dp57
sI23719
(dp58
sI22707
(dp59
sI22712
(dp60
sI20852
(dp61
sI20157
(dp62
sI21192
(dp63
sI22745
(dp64
sI20708
(dp65
sI22759
(dp66
sI22251
(dp67
sI24463
(dp68
sI23283
(dp69
sI20214
(dp70
sI20727
(dp71
sI20218
(dp72
sI20222
(dp73
sI24831
(dp74
sI20227
(dp75
sI21254
(dp76
sI24963
(dp77
sI24844
(dp78
sI20749
(dp79
sI23315
(dp80
sI20245
(dp81
sI24343
(dp82
sI20248
(dp83
sI20249
(dp84
sI24879
(dp85
sI20252
(dp86
sI24349
(dp87
sI22818
(dp88
sI20773
(dp89
sI22826
(dp90
sI24876
(dp91
sI24367
(dp92
sI22322
(dp93
sI21811
(dp94
sI24884
(dp95
sI24339
(dp96
sI24890
(dp97
sI20284
(dp98
sI22847
(dp99
sI23362
(dp100
sI22854
(dp101
sI22924
(dp102
sI20812
(dp103
sI24909
(dp104
sI24910
(dp105
sI23438
(dp106
sI20310
(dp107
sI20312
(dp108
sI22927
(dp109
sI21340
(dp110
sI24930
(dp111
sI21347
(dp112
sI21862
(dp113
sI22887
(dp114
sI24835
(dp115
sI23868
(dp116
sI23407
(dp117
sI22899
(dp118
sI22900
(dp119
sI22901
(dp120
sI22902
(dp121
sI22903
(dp122
sI22904
(dp123
sI23933
(dp124
sI22910
(dp125
sI21377
(dp126
sI22915
(dp127
sI22916
(dp128
sI22407
(dp129
sI22920
(dp130
sI22923
(dp131
sI22412
(dp132
sI22926
(dp133
sI20879
(dp134
sI24465
(dp135
sI22931
(dp136
sI22936
(dp137
sI20890
(dp138
sI24905
(dp139
sI20895
(dp140
sI23976
(dp141
sI22959
(dp142
sI22964
(dp143
sI22453
(dp144
sI21942
(dp145
sI21943
(dp146
sI20420
(dp147
sI23499
(dp148
sI22995
(dp149
sI23833
(dp150
sI22498
(dp151
s.