(dp1
I26247
(dp2
sI27274
(dp3
sI28889
(dp4
sI25112
(dp5
sI27638
(dp6
sI29852
(dp7
sI27293
(dp8
sI25759
(dp9
sI27553
(dp10
sI25257
(dp11
sI25130
(dp12
sI28871
(dp13
sI27053
(dp14
sI26930
(dp15
sI25144
(dp16
sI27065
(dp17
sI25022
(dp18
sI26687
(dp19
sI25028
(dp20
sI25206
(dp21
sI28230
(dp22
sI28577
(dp23
sI25034
(dp24
sI25016
(dp25
sI26450
(dp26
sI27476
(dp27
sI27570
(dp28
sI27224
(dp29
sI25177
(dp30
sI27227
(dp31
sI28543
(dp32
sI25453
(dp33
sI29172
(dp34
sI26230
(dp35
sI25535
(dp36
sI26110
(dp37
sI26111
(dp38
s.