(dp1
I30731
(dp2
sI31758
(dp3
sI34832
(dp4
sI33301
(dp5
sI33303
(dp6
sI34843
(dp7
sI31783
(dp8
sI30259
(dp9
sI33846
(dp10
sI32823
(dp11
sI34873
(dp12
sI34876
(dp13
sI31812
(dp14
sI34896
(dp15
sI34899
(dp16
sI33294
(dp17
sI34629
(dp18
sI33879
(dp19
sI33886
(dp20
sI31841
(dp21
sI30310
(dp22
sI34577
(dp23
sI33896
(dp24
sI34919
(dp25
sI33394
(dp26
sI33399
(dp27
sI34939
(dp28
sI33410
(dp29
sI33411
(dp30
sI32901
(dp31
sI33474
(dp32
sI33424
(dp33
sI33428
(dp34
sI33429
(dp35
sI33438
(dp36
sI34463
(dp37
sI34976
(dp38
sI31906
(dp39
sI33444
(dp40
sI34472
(dp41
sI32427
(dp42
sI31920
(dp43
sI34999
(dp44
sI33467
(dp45
sI33982
(dp46
sI33473
(dp47
sI32450
(dp48
sI34935
(dp49
sI33493
(dp50
sI33494
(dp51
sI34007
(dp52
sI34520
(dp53
sI34528
(dp54
sI32481
(dp55
sI31970
(dp56
sI33510
(dp57
sI34025
(dp58
sI33516
(dp59
sI34029
(dp60
sI34030
(dp61
sI34040
(dp62
sI34044
(dp63
sI33533
(dp64
sI33026
(dp65
sI34063
(dp66
sI34064
(dp67
sI31505
(dp68
sI34580
(dp69
sI34606
(dp70
sI33561
(dp71
sI33055
(dp72
sI31524
(dp73
sI31015
(dp74
sI33066
(dp75
sI34094
(dp76
sI34097
(dp77
sI30003
(dp78
sI34615
(dp79
sI30521
(dp80
sI33595
(dp81
sI31038
(dp82
sI34626
(dp83
sI31557
(dp84
sI33607
(dp85
sI33100
(dp86
sI31058
(dp87
sI34645
(dp88
sI33624
(dp89
sI31577
(dp90
sI34139
(dp91
sI31068
(dp92
sI32605
(dp93
sI33630
(dp94
sI34659
(dp95
sI33130
(dp96
sI33133
(dp97
sI34162
(dp98
sI34168
(dp99
sI34682
(dp100
sI33154
(dp101
sI33672
(dp102
sI34186
(dp103
sI33679
(dp104
sI34192
(dp105
sI34710
(dp106
sI33179
(dp107
sI31135
(dp108
sI33700
(dp109
sI33704
(dp110
sI33193
(dp111
sI33194
(dp112
sI34631
(dp113
sI32172
(dp114
sI33198
(dp115
sI33715
(dp116
sI33716
(dp117
sI33721
(dp118
sI34241
(dp119
sI34253
(dp120
sI34768
(dp121
sI33751
(dp122
sI32232
(dp123
sI33769
(dp124
sI34800
(dp125
sI34216
(dp126
sI33270
(dp127
sI33277
(dp128
s.