(dp1
I36867
(dp2
sI39428
(dp3
sI36361
(dp4
sI37574
(dp5
sI35344
(dp6
sI37909
(dp7
sI39961
(dp8
sI39514
(dp9
sI36896
(dp10
sI36898
(dp11
sI39483
(dp12
sI35900
(dp13
sI37440
(dp14
sI36417
(dp15
sI36418
(dp16
sI35395
(dp17
sI37132
(dp18
sI36426
(dp19
sI36023
(dp20
sI35917
(dp21
sI36432
(dp22
sI36946
(dp23
sI36951
(dp24
sI36952
(dp25
sI36954
(dp26
sI35419
(dp27
sI35421
(dp28
sI37472
(dp29
sI36451
(dp30
sI36452
(dp31
sI36453
(dp32
sI36454
(dp33
sI36455
(dp34
sI35944
(dp35
sI35434
(dp36
sI35948
(dp37
sI37496
(dp38
sI38015
(dp39
sI39558
(dp40
sI38023
(dp41
sI35464
(dp42
sI35978
(dp43
sI37004
(dp44
sI35981
(dp45
sI37523
(dp46
sI36501
(dp47
sI37530
(dp48
sI38046
(dp49
sI35487
(dp50
sI35490
(dp51
sI35492
(dp52
sI35493
(dp53
sI36518
(dp54
sI35495
(dp55
sI35498
(dp56
sI36523
(dp57
sI36012
(dp58
sI37550
(dp59
sI35507
(dp60
sI37044
(dp61
sI35509
(dp62
sI35511
(dp63
sI37048
(dp64
sI36026
(dp65
sI37578
(dp66
sI36032
(dp67
sI37572
(dp68
sI37514
(dp69
sI36554
(dp70
sI35531
(dp71
sI35020
(dp72
sI35533
(dp73
sI36047
(dp74
sI37752
(dp75
sI36562
(dp76
sI35540
(dp77
sI37590
(dp78
sI36055
(dp79
sI35032
(dp80
sI35036
(dp81
sI37597
(dp82
sI39648
(dp83
sI39141
(dp84
sI35046
(dp85
sI36583
(dp86
sI35560
(dp87
sI36592
(dp88
sI35057
(dp89
sI35574
(dp90
sI37624
(dp91
sI37588
(dp92
sI35066
(dp93
sI37629
(dp94
sI37118
(dp95
sI36610
(dp96
sI37124
(dp97
sI35080
(dp98
sI37642
(dp99
sI35084
(dp100
sI35085
(dp101
sI37035
(dp102
sI35089
(dp103
sI36626
(dp104
sI37148
(dp105
sI37150
(dp106
sI35107
(dp107
sI36646
(dp108
sI36647
(dp109
sI38185
(dp110
sI35115
(dp111
sI36140
(dp112
sI35117
(dp113
sI37166
(dp114
sI39816
(dp115
sI35637
(dp116
sI37690
(dp117
sI36667
(dp118
sI36156
(dp119
sI36669
(dp120
sI37182
(dp121
sI35125
(dp122
sI36164
(dp123
sI37191
(dp124
sI37199
(dp125
sI37347
(dp126
sI36694
(dp127
sI36700
(dp128
sI35687
(dp129
sI35688
(dp130
sI36201
(dp131
sI39788
(dp132
sI36206
(dp133
sI37693
(dp134
sI36720
(dp135
sI38035
(dp136
sI36725
(dp137
sI38263
(dp138
sI37240
(dp139
sI38292
(dp140
sI35707
(dp141
sI35199
(dp142
sI38784
(dp143
sI37250
(dp144
sI35203
(dp145
sI36228
(dp146
sI36229
(dp147
sI37026
(dp148
sI37768
(dp149
sI35209
(dp150
sI37282
(dp151
sI35728
(dp152
sI35732
(dp153
sI35734
(dp154
sI35223
(dp155
sI35736
(dp156
sI36250
(dp157
sI35227
(dp158
sI35228
(dp159
sI37277
(dp160
sI36255
(dp161
sI39328
(dp162
sI39152
(dp163
sI35234
(dp164
sI36251
(dp165
sI36772
(dp166
sI35239
(dp167
sI35740
(dp168
sI36271
(dp169
sI35251
(dp170
sI37302
(dp171
sI37305
(dp172
sI36794
(dp173
sI37279
(dp174
sI37826
(dp175
sI39367
(dp176
sI36297
(dp177
sI36258
(dp178
sI36816
(dp179
sI36824
(dp180
sI35288
(dp181
sI37338
(dp182
sI36828
(dp183
sI38879
(dp184
sI36944
(dp185
sI36834
(dp186
sI35811
(dp187
sI35826
(dp188
sI36852
(dp189
sI37630
(dp190
sI35835
(dp191
sI36350
(dp192
s.