(dp1
I51200
(dp2
sI51209
(dp3
sI57355
(dp4
sI53262
(dp5
sI57006
(dp6
sI51235
(dp7
sI55333
(dp8
sI51242
(dp9
sI51253
(dp10
sI57402
(dp11
sI51263
(dp12
sI57409
(dp13
sI51267
(dp14
sI55366
(dp15
sI55368
(dp16
sI59467
(dp17
sI51277
(dp18
sI54969
(dp19
sI55388
(dp20
sI55398
(dp21
sI57450
(dp22
sI57451
(dp23
sI57183
(dp24
sI55242
(dp25
sI55413
(dp26
sI55419
(dp27
sI58894
(dp28
sI55422
(dp29
sI55423
(dp30
sI55424
(dp31
sI53377
(dp32
sI55426
(dp33
sI55427
(dp34
sI59524
(dp35
sI55429
(dp36
sI55431
(dp37
sI55433
(dp38
sI55434
(dp39
sI53387
(dp40
sI55436
(dp41
sI55437
(dp42
sI57486
(dp43
sI55439
(dp44
sI55458
(dp45
sI55460
(dp46
sI59559
(dp47
sI55469
(dp48
sI59080
(dp49
sI55480
(dp50
sI58400
(dp51
sI57035
(dp52
sI55492
(dp53
sI58401
(dp54
sI59593
(dp55
sI55245
(dp56
sI59595
(dp57
sI58402
(dp58
sI57553
(dp59
sI57554
(dp60
sI53461
(dp61
sI57559
(dp62
sI57039
(dp63
sI55521
(dp64
sI53475
(dp65
sI59621
(dp66
sI59624
(dp67
sI55531
(dp68
sI59629
(dp69
sI53486
(dp70
sI59632
(dp71
sI57043
(dp72
sI59638
(dp73
sI53497
(dp74
sI53498
(dp75
sI59202
(dp76
sI53501
(dp77
sI55564
(dp78
sI57614
(dp79
sI59665
(dp80
sI59666
(dp81
sI57049
(dp82
sI55578
(dp83
sI55580
(dp84
sI55583
(dp85
sI59682
(dp86
sI57636
(dp87
sI55590
(dp88
sI53545
(dp89
sI53546
(dp90
sI57646
(dp91
sI55606
(dp92
sI53561
(dp93
sI59708
(dp94
sI59710
(dp95
sI53567
(dp96
sI51521
(dp97
sI57672
(dp98
sI59721
(dp99
sI51530
(dp100
sI59723
(dp101
sI59724
(dp102
sI51534
(dp103
sI51539
(dp104
sI59737
(dp105
sI59738
(dp106
sI57693
(dp107
sI59341
(dp108
sI59743
(dp109
sI59744
(dp110
sI59745
(dp111
sI59746
(dp112
sI55652
(dp113
sI52966
(dp114
sI51559
(dp115
sI54675
(dp116
sI51573
(dp117
sI51582
(dp118
sI57733
(dp119
sI57734
(dp120
sI55694
(dp121
sI55695
(dp122
sI59459
(dp123
sI51605
(dp124
sI57750
(dp125
sI57751
(dp126
sI51621
(dp127
sI57766
(dp128
sI55722
(dp129
sI57777
(dp130
sI57780
(dp131
sI57794
(dp132
sI59848
(dp133
sI55757
(dp134
sI53717
(dp135
sI53728
(dp136
sI55782
(dp137
sI53738
(dp138
sI59892
(dp139
sI59899
(dp140
sI57852
(dp141
sI59901
(dp142
sI57854
(dp143
sI54357
(dp144
sI59904
(dp145
sI59905
(dp146
sI59906
(dp147
sI59907
(dp148
sI59908
(dp149
sI59909
(dp150
sI59910
(dp151
sI53767
(dp152
sI59912
(dp153
sI59913
(dp154
sI54359
(dp155
sI51732
(dp156
sI55832
(dp157
sI51739
(dp158
sI59935
(dp159
sI59938
(dp160
sI59941
(dp161
sI51752
(dp162
sI59945
(dp163
sI59946
(dp164
sI58802
(dp165
sI59950
(dp166
sI55858
(dp167
sI58803
(dp168
sI57920
(dp169
sI59554
(dp170
sI57928
(dp171
sI51786
(dp172
sI56418
(dp173
sI55053
(dp174
sI51798
(dp175
sI51801
(dp176
sI59995
(dp177
sI59998
(dp178
sI57953
(dp179
sI57956
(dp180
sI57962
(dp181
sI57967
(dp182
sI56424
(dp183
sI51831
(dp184
sI57982
(dp185
sI55936
(dp186
sI51841
(dp187
sI51854
(dp188
sI58000
(dp189
sI51860
(dp190
sI58008
(dp191
sI55962
(dp192
sI58016
(dp193
sI51879
(dp194
sI53934
(dp195
sI53938
(dp196
sI56777
(dp197
sI50635
(dp198
sI53972
(dp199
sI53973
(dp200
sI51927
(dp201
sI51929
(dp202
sI53978
(dp203
sI51934
(dp204
sI51938
(dp205
sI53990
(dp206
sI53991
(dp207
sI53992
(dp208
sI53993
(dp209
sI58100
(dp210
sI58101
(dp211
sI54377
(dp212
sI55425
(dp213
sI51980
(dp214
sI56079
(dp215
sI56087
(dp216
sI59902
(dp217
sI57038
(dp218
sI56097
(dp219
sI56098
(dp220
sI56102
(dp221
sI52019
(dp222
sI52021
(dp223
sI59903
(dp224
sI56121
(dp225
sI54078
(dp226
sI54079
(dp227
sI55435
(dp228
sI58187
(dp229
sI50003
(dp230
sI59534
(dp231
sI54103
(dp232
sI57044
(dp233
sI56161
(dp234
sI50026
(dp235
sI58219
(dp236
sI50028
(dp237
sI50029
(dp238
sI50033
(dp239
sI50035
(dp240
sI54136
(dp241
sI56810
(dp242
sI50046
(dp243
sI54144
(dp244
sI50050
(dp245
sI50051
(dp246
sI50052
(dp247
sI50053
(dp248
sI50054
(dp249
sI50058
(dp250
sI54155
(dp251
sI50060
(dp252
sI58253
(dp253
sI50063
(dp254
sI58256
(dp255
sI53059
(dp256
sI50069
(dp257
sI56220
(dp258
sI59039
(dp259
sI50081
(dp260
sI50084
(dp261
sI58278
(dp262
sI59975
(dp263
sI54188
(dp264
sI50093
(dp265
sI54195
(dp266
sI56020
(dp267
sI50101
(dp268
sI54205
(dp269
sI50114
(dp270
sI54212
(dp271
sI50118
(dp272
sI50119
(dp273
sI52172
(dp274
sI52173
(dp275
sI50129
(dp276
sI50130
(dp277
sI50132
(dp278
sI50133
(dp279
sI50361
(dp280
sI50138
(dp281
sI50139
(dp282
sI50141
(dp283
sI58340
(dp284
sI50149
(dp285
sI50150
(dp286
sI54248
(dp287
sI59900
(dp288
sI50155
(dp289
sI50156
(dp290
sI50157
(dp291
sI50159
(dp292
sI50163
(dp293
sI50165
(dp294
sI50169
(dp295
sI55807
(dp296
sI58364
(dp297
sI50173
(dp298
sI56832
(dp299
sI50187
(dp300
sI50192
(dp301
sI50194
(dp302
sI50196
(dp303
sI50205
(dp304
sI50207
(dp305
sI50208
(dp306
sI50209
(dp307
sI50210
(dp308
sI58403
(dp309
sI58404
(dp310
sI50213
(dp311
sI54311
(dp312
sI52264
(dp313
sI52266
(dp314
sI59911
(dp315
sI50231
(dp316
sI56379
(dp317
sI56842
(dp318
sI58433
(dp319
sI58436
(dp320
sI50245
(dp321
sI50246
(dp322
sI50251
(dp323
sI50252
(dp324
sI50254
(dp325
sI50257
(dp326
sI50259
(dp327
sI50260
(dp328
sI50261
(dp329
sI50262
(dp330
sI50263
(dp331
sI50265
(dp332
sI50266
(dp333
sI50267
(dp334
sI50268
(dp335
sI50269
(dp336
sI50270
(dp337
sI56415
(dp338
sI50272
(dp339
sI56417
(dp340
sI50274
(dp341
sI50275
(dp342
sI54373
(dp343
sI50280
(dp344
sI50281
(dp345
sI58474
(dp346
sI50284
(dp347
sI50286
(dp348
sI50290
(dp349
sI56438
(dp350
sI54394
(dp351
sI52347
(dp352
sI50300
(dp353
sI56448
(dp354
sI52353
(dp355
sI50306
(dp356
sI56452
(dp357
sI50314
(dp358
sI50318
(dp359
sI54415
(dp360
sI50320
(dp361
sI50321
(dp362
sI50324
(dp363
sI54424
(dp364
sI54427
(dp365
sI54432
(dp366
sI50338
(dp367
sI50346
(dp368
sI58540
(dp369
sI50349
(dp370
sI56494
(dp371
sI59711
(dp372
sI56500
(dp373
sI52405
(dp374
sI50360
(dp375
sI52409
(dp376
sI58556
(dp377
sI54462
(dp378
sI50373
(dp379
sI50375
(dp380
sI50378
(dp381
sI54475
(dp382
sI50383
(dp383
sI56528
(dp384
sI59597
(dp385
sI50391
(dp386
sI54490
(dp387
sI54492
(dp388
sI55162
(dp389
sI52446
(dp390
sI52448
(dp391
sI54498
(dp392
sI52453
(dp393
sI59679
(dp394
sI52471
(dp395
sI52472
(dp396
sI54521
(dp397
sI56582
(dp398
sI59607
(dp399
sI50445
(dp400
sI50448
(dp401
sI50450
(dp402
sI50451
(dp403
sI52502
(dp404
sI50456
(dp405
sI52505
(dp406
sI50458
(dp407
sI56538
(dp408
sI50464
(dp409
sI50465
(dp410
sI52515
(dp411
sI50468
(dp412
sI50471
(dp413
sI50472
(dp414
sI50473
(dp415
sI50475
(dp416
sI50476
(dp417
sI58669
(dp418
sI50479
(dp419
sI50480
(dp420
sI50486
(dp421
sI50492
(dp422
sI56640
(dp423
sI50501
(dp424
sI50503
(dp425
sI52552
(dp426
sI56546
(dp427
sI50510
(dp428
sI52559
(dp429
sI54608
(dp430
sI50516
(dp431
sI50520
(dp432
sI54261
(dp433
sI50533
(dp434
sI50539
(dp435
sI56684
(dp436
sI50543
(dp437
sI50545
(dp438
sI50549
(dp439
sI50550
(dp440
sI50558
(dp441
sI50561
(dp442
sI54661
(dp443
sI58758
(dp444
sI54665
(dp445
sI52619
(dp446
sI52802
(dp447
sI50578
(dp448
sI50579
(dp449
sI56724
(dp450
sI50582
(dp451
sI57059
(dp452
sI54681
(dp453
sI50588
(dp454
sI58783
(dp455
sI52640
(dp456
sI50593
(dp457
sI50595
(dp458
sI58789
(dp459
sI58794
(dp460
sI50603
(dp461
sI58796
(dp462
sI50606
(dp463
sI59976
(dp464
sI50610
(dp465
sI50611
(dp466
sI58804
(dp467
sI58807
(dp468
sI50617
(dp469
sI58810
(dp470
sI58812
(dp471
sI59978
(dp472
sI50628
(dp473
sI50631
(dp474
sI50633
(dp475
sI52683
(dp476
sI50636
(dp477
sI54738
(dp478
sI58844
(dp479
sI57266
(dp480
sI50660
(dp481
sI50663
(dp482
sI50664
(dp483
sI50666
(dp484
sI50667
(dp485
sI50669
(dp486
sI52718
(dp487
sI56817
(dp488
sI50683
(dp489
sI50686
(dp490
sI50688
(dp491
sI50694
(dp492
sI56236
(dp493
sI50698
(dp494
sI56919
(dp495
sI50701
(dp496
sI50702
(dp497
sI53165
(dp498
sI54804
(dp499
sI50709
(dp500
sI50717
(dp501
sI54819
(dp502
sI59231
(dp503
sI52777
(dp504
sI50730
(dp505
sI50733
(dp506
sI52782
(dp507
sI52783
(dp508
sI52784
(dp509
sI54541
(dp510
sI50754
(dp511
sI56900
(dp512
sI58497
(dp513
sI57271
(dp514
sI56908
(dp515
sI54862
(dp516
sI50767
(dp517
sI50768
(dp518
sI54871
(dp519
sI58968
(dp520
sI50790
(dp521
sI52839
(dp522
sI50792
(dp523
sI50798
(dp524
sI56945
(dp525
sI54898
(dp526
sI58004
(dp527
sI50804
(dp528
sI50805
(dp529
sI59004
(dp530
sI50454
(dp531
sI50823
(dp532
sI50827
(dp533
sI55234
(dp534
sI59024
(dp535
sI50833
(dp536
sI50834
(dp537
sI56990
(dp538
sI56991
(dp539
sI56992
(dp540
sI59043
(dp541
sI56998
(dp542
sI50856
(dp543
sI50857
(dp544
sI52908
(dp545
sI56946
(dp546
sI52910
(dp547
sI59046
(dp548
sI50864
(dp549
sI59057
(dp550
sI54963
(dp551
sI54964
(dp552
sI52917
(dp553
sI52921
(dp554
sI59066
(dp555
sI54971
(dp556
sI52925
(dp557
sI50879
(dp558
sI59072
(dp559
sI54977
(dp560
sI50882
(dp561
sI50885
(dp562
sI52513
(dp563
sI54984
(dp564
sI57033
(dp565
sI50891
(dp566
sI57037
(dp567
sI50894
(dp568
sI50125
(dp569
sI57040
(dp570
sI57041
(dp571
sI50899
(dp572
sI50900
(dp573
sI57045
(dp574
sI57046
(dp575
sI57047
(dp576
sI57048
(dp577
sI52516
(dp578
sI52954
(dp579
sI57051
(dp580
sI57057
(dp581
sI50914
(dp582
sI50915
(dp583
sI50918
(dp584
sI57068
(dp585
sI55022
(dp586
sI57075
(dp587
sI50932
(dp588
sI57078
(dp589
sI57082
(dp590
sI52987
(dp591
sI57085
(dp592
sI59136
(dp593
sI57091
(dp594
sI52997
(dp595
sI57096
(dp596
sI59145
(dp597
sI50954
(dp598
sI59147
(dp599
sI50957
(dp600
sI59151
(dp601
sI50960
(dp602
sI50137
(dp603
sI50971
(dp604
sI56965
(dp605
sI58331
(dp606
sI50980
(dp607
sI50986
(dp608
sI56285
(dp609
sI50997
(dp610
sI50998
(dp611
sI51002
(dp612
sI51005
(dp613
sI57154
(dp614
sI51011
(dp615
sI53061
(dp616
sI51023
(dp617
sI59217
(dp618
sI51026
(dp619
sI51027
(dp620
sI51032
(dp621
sI57180
(dp622
sI57181
(dp623
sI53086
(dp624
sI53087
(dp625
sI53088
(dp626
sI53089
(dp627
sI51042
(dp628
sI53094
(dp629
sI59241
(dp630
sI51050
(dp631
sI51051
(dp632
sI53100
(dp633
sI53103
(dp634
sI59250
(dp635
sI57204
(dp636
sI51065
(dp637
sI51066
(dp638
sI51067
(dp639
sI51073
(dp640
sI57220
(dp641
sI54252
(dp642
sI55185
(dp643
sI51090
(dp644
sI51104
(dp645
sI55202
(dp646
sI53159
(dp647
sI51114
(dp648
sI51117
(dp649
sI51118
(dp650
sI53167
(dp651
sI51120
(dp652
sI51121
(dp653
sI51122
(dp654
sI51123
(dp655
sI51125
(dp656
sI51126
(dp657
sI51127
(dp658
sI57272
(dp659
sI51129
(dp660
sI51131
(dp661
sI51135
(dp662
sI55232
(dp663
sI59329
(dp664
sI51138
(dp665
sI59337
(dp666
sI51146
(dp667
sI51149
(dp668
sI55251
(dp669
sI59726
(dp670
sI57312
(dp671
sI51173
(dp672
sI55270
(dp673
sI53223
(dp674
sI51183
(dp675
sI52905
(dp676
sI57336
(dp677
sI53242
(dp678
sI57342
(dp679
s.