(dp1
I67584
(dp2
sI69645
(dp3
sI61454
(dp4
sI61456
(dp5
sI69654
(dp6
sI67613
(dp7
sI69664
(dp8
sI67625
(dp9
sI69674
(dp10
sI65580
(dp11
sI65595
(dp12
sI65603
(dp13
sI67652
(dp14
sI65606
(dp15
sI67656
(dp16
sI67657
(dp17
sI67660
(dp18
sI61112
(dp19
sI64528
(dp20
sI61538
(dp21
sI61539
(dp22
sI61540
(dp23
sI61541
(dp24
sI65639
(dp25
sI63596
(dp26
sI66578
(dp27
sI65649
(dp28
sI69751
(dp29
sI69759
(dp30
sI67712
(dp31
sI67713
(dp32
sI67714
(dp33
sI67715
(dp34
sI61122
(dp35
sI67729
(dp36
sI67733
(dp37
sI67738
(dp38
sI67739
(dp39
sI67741
(dp40
sI69791
(dp41
sI65697
(dp42
sI67746
(dp43
sI67747
(dp44
sI67748
(dp45
sI69318
(dp46
sI67751
(dp47
sI67756
(dp48
sI66930
(dp49
sI65715
(dp50
sI68638
(dp51
sI67766
(dp52
sI67273
(dp53
sI69822
(dp54
sI69824
(dp55
sI65729
(dp56
sI67275
(dp57
sI68982
(dp58
sI67276
(dp59
sI67277
(dp60
sI69380
(dp61
sI61134
(dp62
sI63715
(dp63
sI67817
(dp64
sI65771
(dp65
sI63724
(dp66
sI65780
(dp67
sI65782
(dp68
sI67832
(dp69
sI67834
(dp70
sI67839
(dp71
sI65238
(dp72
sI67848
(dp73
sI69676
(dp74
sI69335
(dp75
sI67858
(dp76
sI69909
(dp77
sI69912
(dp78
sI67865
(dp79
sI67866
(dp80
sI67868
(dp81
sI69923
(dp82
sI65831
(dp83
sI61148
(dp84
sI67882
(dp85
sI61745
(dp86
sI63198
(dp87
sI63199
(dp88
sI65248
(dp89
sI65860
(dp90
sI67909
(dp91
sI65862
(dp92
sI65863
(dp93
sI65864
(dp94
sI63817
(dp95
sI67921
(dp96
sI67925
(dp97
sI69988
(dp98
sI67302
(dp99
sI67943
(dp100
sI67303
(dp101
sI67986
(dp102
sI69998
(dp103
sI69999
(dp104
sI65916
(dp105
sI67307
(dp106
sI67369
(dp107
sI67997
(dp108
sI65951
(dp109
sI68004
(dp110
sI65958
(dp111
sI68012
(dp112
sI65967
(dp113
sI67315
(dp114
sI67528
(dp115
sI65980
(dp116
sI65988
(dp117
sI61174
(dp118
sI69025
(dp119
sI68040
(dp120
sI68041
(dp121
sI65996
(dp122
sI63957
(dp123
sI66007
(dp124
sI66019
(dp125
sI64529
(dp126
sI67324
(dp127
sI68075
(dp128
sI68691
(dp129
sI68085
(dp130
sI66041
(dp131
sI66043
(dp132
sI69385
(dp133
sI61184
(dp134
sI66056
(dp135
sI69379
(dp136
sI61977
(dp137
sI68122
(dp138
sI66079
(dp139
sI61190
(dp140
sI69383
(dp141
sI66094
(dp142
sI69384
(dp143
sI64050
(dp144
sI64051
(dp145
sI66102
(dp146
sI66103
(dp147
sI68157
(dp148
sI66110
(dp149
sI66112
(dp150
sI64066
(dp151
sI66118
(dp152
sI69729
(dp153
sI67192
(dp154
sI64074
(dp155
sI67683
(dp156
sI68182
(dp157
sI62042
(dp158
sI68367
(dp159
sI66143
(dp160
sI66145
(dp161
sI67193
(dp162
sI66160
(dp163
sI67194
(dp164
sI68558
(dp165
sI69386
(dp166
sI68377
(dp167
sI62104
(dp168
sI66210
(dp169
sI67195
(dp170
sI60068
(dp171
sI64173
(dp172
sI66236
(dp173
sI68385
(dp174
sI60111
(dp175
sI64209
(dp176
sI60114
(dp177
sI68309
(dp178
sI68311
(dp179
sI64219
(dp180
sI67327
(dp181
sI64228
(dp182
sI64234
(dp183
sI66291
(dp184
sI66292
(dp185
sI62198
(dp186
sI66295
(dp187
sI66296
(dp188
sI66299
(dp189
sI60157
(dp190
sI64255
(dp191
sI66306
(dp192
sI62220
(dp193
sI68365
(dp194
sI62222
(dp195
sI66349
(dp196
sI68369
(dp197
sI69381
(dp198
sI68373
(dp199
sI66326
(dp200
sI68376
(dp201
sI66329
(dp202
sI68378
(dp203
sI68380
(dp204
sI68383
(dp205
sI66336
(dp206
sI66337
(dp207
sI62242
(dp208
sI68387
(dp209
sI62248
(dp210
sI66346
(dp211
sI62251
(dp212
sI64301
(dp213
sI66356
(dp214
sI60213
(dp215
sI66360
(dp216
sI66362
(dp217
sI66367
(dp218
sI69178
(dp219
sI68421
(dp220
sI62278
(dp221
sI64327
(dp222
sI62281
(dp223
sI66380
(dp224
sI66381
(dp225
sI66382
(dp226
sI66383
(dp227
sI66385
(dp228
sI66387
(dp229
sI66389
(dp230
sI66391
(dp231
sI66393
(dp232
sI62298
(dp233
sI62299
(dp234
sI62300
(dp235
sI62301
(dp236
sI62302
(dp237
sI64351
(dp238
sI62304
(dp239
sI62305
(dp240
sI62306
(dp241
sI62307
(dp242
sI62308
(dp243
sI62309
(dp244
sI62310
(dp245
sI64359
(dp246
sI62312
(dp247
sI62313
(dp248
sI62314
(dp249
sI62315
(dp250
sI62316
(dp251
sI62318
(dp252
sI62319
(dp253
sI62320
(dp254
sI62321
(dp255
sI62322
(dp256
sI62323
(dp257
sI62324
(dp258
sI62325
(dp259
sI62326
(dp260
sI62328
(dp261
sI62329
(dp262
sI62330
(dp263
sI62331
(dp264
sI62333
(dp265
sI62334
(dp266
sI62335
(dp267
sI62336
(dp268
sI62337
(dp269
sI62338
(dp270
sI62339
(dp271
sI62340
(dp272
sI62341
(dp273
sI69453
(dp274
sI62343
(dp275
sI62344
(dp276
sI62345
(dp277
sI62346
(dp278
sI62347
(dp279
sI62348
(dp280
sI62349
(dp281
sI62350
(dp282
sI62351
(dp283
sI62352
(dp284
sI62353
(dp285
sI62354
(dp286
sI62355
(dp287
sI60310
(dp288
sI62361
(dp289
sI62362
(dp290
sI62364
(dp291
sI62365
(dp292
sI62366
(dp293
sI62367
(dp294
sI62369
(dp295
sI68520
(dp296
sI66474
(dp297
sI62279
(dp298
sI66477
(dp299
sI66479
(dp300
sI64432
(dp301
sI64435
(dp302
sI64436
(dp303
sI62390
(dp304
sI62391
(dp305
sI62392
(dp306
sI62393
(dp307
sI62394
(dp308
sI62395
(dp309
sI69451
(dp310
sI66503
(dp311
sI62411
(dp312
sI62413
(dp313
sI62414
(dp314
sI62415
(dp315
sI62416
(dp316
sI62417
(dp317
sI62418
(dp318
sI62419
(dp319
sI62421
(dp320
sI68774
(dp321
sI68579
(dp322
sI66533
(dp323
sI66535
(dp324
sI66536
(dp325
sI68586
(dp326
sI67410
(dp327
sI68435
(dp328
sI68596
(dp329
sI60405
(dp330
sI69461
(dp331
sI68610
(dp332
sI68617
(dp333
sI68618
(dp334
sI60428
(dp335
sI64525
(dp336
sI64526
(dp337
sI64527
(dp338
sI60432
(dp339
sI60433
(dp340
sI64530
(dp341
sI64534
(dp342
sI64535
(dp343
sI60441
(dp344
sI68637
(dp345
sI67344
(dp346
sI68640
(dp347
sI66395
(dp348
sI60458
(dp349
sI60460
(dp350
sI60461
(dp351
sI66606
(dp352
sI60468
(dp353
sI66398
(dp354
sI62303
(dp355
sI69391
(dp356
sI60481
(dp357
sI66627
(dp358
sI66628
(dp359
sI66629
(dp360
sI66636
(dp361
sI66402
(dp362
sI68689
(dp363
sI66403
(dp364
sI69135
(dp365
sI66405
(dp366
sI66656
(dp367
sI60515
(dp368
sI66406
(dp369
sI66662
(dp370
sI62311
(dp371
sI66411
(dp372
sI66694
(dp373
sI66696
(dp374
sI68462
(dp375
sI64663
(dp376
sI64664
(dp377
sI66415
(dp378
sI66717
(dp379
sI66462
(dp380
sI68777
(dp381
sI66730
(dp382
sI66418
(dp383
sI66419
(dp384
sI66746
(dp385
sI66747
(dp386
sI66421
(dp387
sI68803
(dp388
sI66422
(dp389
sI68807
(dp390
sI68472
(dp391
sI66776
(dp392
sI66779
(dp393
sI62687
(dp394
sI66797
(dp395
sI66800
(dp396
sI66801
(dp397
sI64754
(dp398
sI66430
(dp399
sI66431
(dp400
sI62720
(dp401
sI66433
(dp402
sI68878
(dp403
sI68885
(dp404
sI66437
(dp405
sI68903
(dp406
sI66439
(dp407
sI69171
(dp408
sI68831
(dp409
sI66443
(dp410
sI62791
(dp411
sI62795
(dp412
sI66896
(dp413
sI66899
(dp414
sI66446
(dp415
sI66904
(dp416
sI66909
(dp417
sI64864
(dp418
sI66400
(dp419
sI60771
(dp420
sI60774
(dp421
sI60786
(dp422
sI68158
(dp423
sI60790
(dp424
sI68983
(dp425
sI69183
(dp426
sI68447
(dp427
sI60803
(dp428
sI68997
(dp429
sI69000
(dp430
sI64913
(dp431
sI66967
(dp432
sI64920
(dp433
sI69018
(dp434
sI69021
(dp435
sI69023
(dp436
sI69024
(dp437
sI68448
(dp438
sI69026
(dp439
sI68166
(dp440
sI66460
(dp441
sI60843
(dp442
sI66802
(dp443
sI66461
(dp444
sI64948
(dp445
sI64949
(dp446
sI66463
(dp447
sI68853
(dp448
sI64964
(dp449
sI66465
(dp450
sI64971
(dp451
sI64972
(dp452
sI64980
(dp453
sI67031
(dp454
sI69081
(dp455
sI67034
(dp456
sI67043
(dp457
sI64996
(dp458
sI64997
(dp459
sI67053
(dp460
sI65007
(dp461
sI67058
(dp462
sI65016
(dp463
sI69114
(dp464
sI65022
(dp465
sI60929
(dp466
sI67075
(dp467
sI65038
(dp468
sI67087
(dp469
sI68186
(dp470
sI67103
(dp471
sI66480
(dp472
sI67111
(dp473
sI67115
(dp474
sI67116
(dp475
sI67117
(dp476
sI69166
(dp477
sI65071
(dp478
sI62387
(dp479
sI65079
(dp480
sI67128
(dp481
sI67130
(dp482
sI69181
(dp483
sI69182
(dp484
sI67135
(dp485
sI67294
(dp486
sI69185
(dp487
sI69186
(dp488
sI63052
(dp489
sI65103
(dp490
sI67156
(dp491
sI65114
(dp492
sI67163
(dp493
sI68538
(dp494
sI67295
(dp495
sI69217
(dp496
sI67183
(dp497
sI67184
(dp498
sI69235
(dp499
sI67189
(dp500
sI67190
(dp501
sI63096
(dp502
sI65145
(dp503
sI65146
(dp504
sI63099
(dp505
sI65163
(dp506
sI65164
(dp507
sI65170
(dp508
sI65171
(dp509
sI65172
(dp510
sI65178
(dp511
sI69914
(dp512
sI67231
(dp513
sI69280
(dp514
sI65187
(dp515
sI65189
(dp516
sI65193
(dp517
sI68551
(dp518
sI67245
(dp519
sI69295
(dp520
sI63432
(dp521
sI67251
(dp522
sI67253
(dp523
sI61111
(dp524
sI65208
(dp525
sI61113
(dp526
sI61114
(dp527
sI61115
(dp528
sI61116
(dp529
sI61117
(dp530
sI65214
(dp531
sI61119
(dp532
sI61120
(dp533
sI61121
(dp534
sI65218
(dp535
sI61123
(dp536
sI61124
(dp537
sI61125
(dp538
sI61126
(dp539
sI61127
(dp540
sI61128
(dp541
sI61129
(dp542
sI61130
(dp543
sI61131
(dp544
sI61132
(dp545
sI61133
(dp546
sI65230
(dp547
sI61135
(dp548
sI61136
(dp549
sI61137
(dp550
sI61138
(dp551
sI61139
(dp552
sI61140
(dp553
sI61141
(dp554
sI61142
(dp555
sI61143
(dp556
sI61144
(dp557
sI61145
(dp558
sI61146
(dp559
sI61147
(dp560
sI65244
(dp561
sI61149
(dp562
sI61150
(dp563
sI61151
(dp564
sI61152
(dp565
sI61153
(dp566
sI61154
(dp567
sI61155
(dp568
sI69348
(dp569
sI61157
(dp570
sI61158
(dp571
sI61159
(dp572
sI61160
(dp573
sI61161
(dp574
sI61162
(dp575
sI61163
(dp576
sI61164
(dp577
sI61165
(dp578
sI61166
(dp579
sI61167
(dp580
sI61168
(dp581
sI61169
(dp582
sI61170
(dp583
sI61171
(dp584
sI65270
(dp585
sI61175
(dp586
sI67320
(dp587
sI69370
(dp588
sI61179
(dp589
sI61180
(dp590
sI61181
(dp591
sI61182
(dp592
sI66517
(dp593
sI65280
(dp594
sI69378
(dp595
sI61187
(dp596
sI61188
(dp597
sI61189
(dp598
sI63238
(dp599
sI61191
(dp600
sI61192
(dp601
sI61193
(dp602
sI61194
(dp603
sI61195
(dp604
sI61196
(dp605
sI61197
(dp606
sI61199
(dp607
sI61200
(dp608
sI61202
(dp609
sI61203
(dp610
sI61204
(dp611
sI61205
(dp612
sI67353
(dp613
sI63259
(dp614
sI63269
(dp615
sI61225
(dp616
sI65322
(dp617
sI65324
(dp618
sI65329
(dp619
sI67395
(dp620
sI67396
(dp621
sI69445
(dp622
sI69446
(dp623
sI69449
(dp624
sI68053
(dp625
sI66448
(dp626
sI61260
(dp627
sI61261
(dp628
sI63314
(dp629
sI67413
(dp630
sI67419
(dp631
sI67424
(dp632
sI67425
(dp633
sI65379
(dp634
sI69478
(dp635
sI69482
(dp636
sI69350
(dp637
sI69504
(dp638
sI65412
(dp639
sI65420
(dp640
sI63373
(dp641
sI66883
(dp642
sI65436
(dp643
sI65448
(dp644
sI67500
(dp645
sI67507
(dp646
sI67512
(dp647
sI67513
(dp648
sI69563
(dp649
sI69565
(dp650
sI67521
(dp651
sI64843
(dp652
sI67524
(dp653
sI69574
(dp654
sI67527
(dp655
sI65480
(dp656
sI67530
(dp657
sI67535
(dp658
sI69595
(dp659
sI67568
(dp660
sI67575
(dp661
s.