(dp1
I77824
(dp2
sI79872
(dp3
sI79874
(dp4
sI75779
(dp5
sI75780
(dp6
sI79877
(dp7
sI79878
(dp8
sI79873
(dp9
sI79880
(dp10
sI77484
(dp11
sI75786
(dp12
sI79883
(dp13
sI79884
(dp14
sI79885
(dp15
sI79886
(dp16
sI79887
(dp17
sI79888
(dp18
sI79889
(dp19
sI79890
(dp20
sI79875
(dp21
sI77844
(dp22
sI79894
(dp23
sI79896
(dp24
sI79876
(dp25
sI79899
(dp26
sI79900
(dp27
sI79901
(dp28
sI79902
(dp29
sI79903
(dp30
sI79904
(dp31
sI73761
(dp32
sI79906
(dp33
sI77859
(dp34
sI79908
(dp35
sI77862
(dp36
sI79912
(dp37
sI77865
(dp38
sI79914
(dp39
sI74759
(dp40
sI71724
(dp41
sI71725
(dp42
sI71726
(dp43
sI79919
(dp44
sI78290
(dp45
sI79922
(dp46
sI73779
(dp47
sI71732
(dp48
sI73782
(dp49
sI79881
(dp50
sI79928
(dp51
sI77882
(dp52
sI75836
(dp53
sI77834
(dp54
sI75841
(dp55
sI73794
(dp56
sI73795
(dp57
sI73796
(dp58
sI79542
(dp59
sI77894
(dp60
sI73805
(dp61
sI77904
(dp62
sI71763
(dp63
sI71764
(dp64
sI71765
(dp65
sI71766
(dp66
sI73820
(dp67
sI79860
(dp68
sI77922
(dp69
sI78725
(dp70
sI73831
(dp71
sI79977
(dp72
sI73837
(dp73
sI77935
(dp74
sI71792
(dp75
sI77937
(dp76
sI73843
(dp77
sI73847
(dp78
sI78868
(dp79
sI73850
(dp80
sI74431
(dp81
sI71807
(dp82
sI71808
(dp83
sI71809
(dp84
sI78657
(dp85
sI77959
(dp86
sI71820
(dp87
sI71826
(dp88
sI79897
(dp89
sI79862
(dp90
sI71835
(dp91
sI71836
(dp92
sI75941
(dp93
sI75942
(dp94
sI71847
(dp95
sI75944
(dp96
sI77997
(dp97
sI75950
(dp98
sI75954
(dp99
sI75957
(dp100
sI75958
(dp101
sI71868
(dp102
sI78014
(dp103
sI71871
(dp104
sI78016
(dp105
sI71875
(dp106
sI71876
(dp107
sI78021
(dp108
sI78022
(dp109
sI79905
(dp110
sI79907
(dp111
sI75990
(dp112
sI78794
(dp113
sI73950
(dp114
sI78048
(dp115
sI73953
(dp116
sI73956
(dp117
sI73957
(dp118
sI73964
(dp119
sI78546
(dp120
sI73977
(dp121
sI71931
(dp122
sI71935
(dp123
sI76034
(dp124
sI77867
(dp125
sI78892
(dp126
sI71947
(dp127
sI71949
(dp128
sI74001
(dp129
sI74003
(dp130
sI71956
(dp131
sI71957
(dp132
sI74008
(dp133
sI71963
(dp134
sI78110
(dp135
sI78555
(dp136
sI77190
(dp137
sI71974
(dp138
sI76076
(dp139
sI71983
(dp140
sI74032
(dp141
sI71987
(dp142
sI79924
(dp143
sI72005
(dp144
sI72006
(dp145
sI72008
(dp146
sI79927
(dp147
sI79930
(dp148
sI76126
(dp149
sI72040
(dp150
sI72042
(dp151
sI77543
(dp152
sI72047
(dp153
sI72048
(dp154
sI70001
(dp155
sI70007
(dp156
sI70009
(dp157
sI70014
(dp158
sI72064
(dp159
sI78211
(dp160
sI76167
(dp161
sI79938
(dp162
sI78222
(dp163
sI76867
(dp164
sI72086
(dp165
sI70042
(dp166
sI78237
(dp167
sI72097
(dp168
sI72100
(dp169
sI70054
(dp170
sI76200
(dp171
sI76201
(dp172
sI76202
(dp173
sI76204
(dp174
sI72113
(dp175
sI72119
(dp176
sI72120
(dp177
sI70082
(dp178
sI76229
(dp179
sI72780
(dp180
sI78284
(dp181
sI72781
(dp182
sI79054
(dp183
sI70097
(dp184
sI70098
(dp185
sI70101
(dp186
sI76246
(dp187
sI70107
(dp188
sI70110
(dp189
sI74210
(dp190
sI72102
(dp191
sI74214
(dp192
sI70123
(dp193
sI74222
(dp194
sI76271
(dp195
sI74224
(dp196
sI78329
(dp197
sI70138
(dp198
sI72195
(dp199
sI70155
(dp200
sI76601
(dp201
sI71085
(dp202
sI78353
(dp203
sI76306
(dp204
sI78356
(dp205
sI79519
(dp206
sI70173
(dp207
sI76323
(dp208
sI74161
(dp209
sI70186
(dp210
sI76340
(dp211
sI72245
(dp212
sI74294
(dp213
sI72247
(dp214
sI76344
(dp215
sI78393
(dp216
sI72253
(dp217
sI77237
(dp218
sI74306
(dp219
sI74307
(dp220
sI74310
(dp221
sI72263
(dp222
sI74313
(dp223
sI76362
(dp224
sI74317
(dp225
sI75853
(dp226
sI74320
(dp227
sI78264
(dp228
sI72275
(dp229
sI72276
(dp230
sI72277
(dp231
sI74326
(dp232
sI78424
(dp233
sI74331
(dp234
sI70236
(dp235
sI72285
(dp236
sI70238
(dp237
sI72287
(dp238
sI70243
(dp239
sI72293
(dp240
sI76395
(dp241
sI78458
(dp242
sI79637
(dp243
sI70272
(dp244
sI70275
(dp245
sI77590
(dp246
sI77242
(dp247
sI74378
(dp248
sI79298
(dp249
sI70294
(dp250
sI70295
(dp251
sI79879
(dp252
sI70297
(dp253
sI74395
(dp254
sI74396
(dp255
sI74397
(dp256
sI74398
(dp257
sI74399
(dp258
sI74400
(dp259
sI74401
(dp260
sI70309
(dp261
sI74407
(dp262
sI74408
(dp263
sI76467
(dp264
sI74428
(dp265
sI70335
(dp266
sI78625
(dp267
sI74445
(dp268
sI70352
(dp269
sI76497
(dp270
sI76498
(dp271
sI78548
(dp272
sI78550
(dp273
sI78552
(dp274
sI78554
(dp275
sI70363
(dp276
sI78556
(dp277
sI72416
(dp278
sI78564
(dp279
sI70373
(dp280
sI70375
(dp281
sI76924
(dp282
sI77154
(dp283
sI78574
(dp284
sI79882
(dp285
sI78584
(dp286
sI76537
(dp287
sI77951
(dp288
sI78588
(dp289
sI70401
(dp290
sI70415
(dp291
sI78609
(dp292
sI76678
(dp293
sI74523
(dp294
sI70433
(dp295
sI74531
(dp296
sI74533
(dp297
sI70453
(dp298
sI70454
(dp299
sI70455
(dp300
sI70456
(dp301
sI70457
(dp302
sI72506
(dp303
sI70459
(dp304
sI70460
(dp305
sI70461
(dp306
sI70462
(dp307
sI70464
(dp308
sI70465
(dp309
sI78658
(dp310
sI70467
(dp311
sI70468
(dp312
sI70469
(dp313
sI70470
(dp314
sI70471
(dp315
sI70472
(dp316
sI70473
(dp317
sI70474
(dp318
sI70475
(dp319
sI70476
(dp320
sI70477
(dp321
sI70479
(dp322
sI70480
(dp323
sI70481
(dp324
sI70482
(dp325
sI70483
(dp326
sI70484
(dp327
sI70485
(dp328
sI70486
(dp329
sI70487
(dp330
sI70488
(dp331
sI70489
(dp332
sI70491
(dp333
sI70458
(dp334
sI70494
(dp335
sI70495
(dp336
sI70497
(dp337
sI72546
(dp338
sI72547
(dp339
sI70501
(dp340
sI72550
(dp341
sI70503
(dp342
sI70504
(dp343
sI70505
(dp344
sI70506
(dp345
sI72555
(dp346
sI75317
(dp347
sI70512
(dp348
sI70514
(dp349
sI70515
(dp350
sI70516
(dp351
sI70517
(dp352
sI70518
(dp353
sI70519
(dp354
sI70520
(dp355
sI70521
(dp356
sI70522
(dp357
sI70523
(dp358
sI70524
(dp359
sI70526
(dp360
sI72575
(dp361
sI74624
(dp362
sI74625
(dp363
sI70530
(dp364
sI70531
(dp365
sI74628
(dp366
sI70533
(dp367
sI70534
(dp368
sI70535
(dp369
sI72584
(dp370
sI72585
(dp371
sI70538
(dp372
sI76341
(dp373
sI76686
(dp374
sI78737
(dp375
sI74563
(dp376
sI70548
(dp377
sI76694
(dp378
sI76695
(dp379
sI76696
(dp380
sI72858
(dp381
sI74565
(dp382
sI72612
(dp383
sI76614
(dp384
sI76712
(dp385
sI74668
(dp386
sI76719
(dp387
sI76723
(dp388
sI72629
(dp389
sI72630
(dp390
sI78775
(dp391
sI78776
(dp392
sI78777
(dp393
sI74682
(dp394
sI78779
(dp395
sI78780
(dp396
sI78781
(dp397
sI78782
(dp398
sI78783
(dp399
sI78784
(dp400
sI78785
(dp401
sI78786
(dp402
sI74691
(dp403
sI70596
(dp404
sI74693
(dp405
sI74694
(dp406
sI74695
(dp407
sI74696
(dp408
sI74697
(dp409
sI70602
(dp410
sI74699
(dp411
sI72652
(dp412
sI74702
(dp413
sI74703
(dp414
sI74704
(dp415
sI74705
(dp416
sI74706
(dp417
sI74707
(dp418
sI74708
(dp419
sI74709
(dp420
sI74712
(dp421
sI74713
(dp422
sI74714
(dp423
sI74715
(dp424
sI74716
(dp425
sI74717
(dp426
sI74718
(dp427
sI74719
(dp428
sI72672
(dp429
sI74721
(dp430
sI74722
(dp431
sI74723
(dp432
sI74724
(dp433
sI72677
(dp434
sI74726
(dp435
sI79140
(dp436
sI72680
(dp437
sI70635
(dp438
sI74578
(dp439
sI74738
(dp440
sI74579
(dp441
sI74740
(dp442
sI78838
(dp443
sI78839
(dp444
sI74744
(dp445
sI74745
(dp446
sI74747
(dp447
sI70652
(dp448
sI74749
(dp449
sI72702
(dp450
sI74581
(dp451
sI72704
(dp452
sI72705
(dp453
sI72706
(dp454
sI72708
(dp455
sI79141
(dp456
sI72711
(dp457
sI72717
(dp458
sI70675
(dp459
sI72724
(dp460
sI78869
(dp461
sI76830
(dp462
sI76831
(dp463
sI70688
(dp464
sI79918
(dp465
sI78887
(dp466
sI76842
(dp467
sI70700
(dp468
sI76845
(dp469
sI70493
(dp470
sI78896
(dp471
sI76849
(dp472
sI78898
(dp473
sI70707
(dp474
sI78900
(dp475
sI78686
(dp476
sI70712
(dp477
sI70719
(dp478
sI72770
(dp479
sI72771
(dp480
sI72772
(dp481
sI72773
(dp482
sI70732
(dp483
sI70498
(dp484
sI79373
(dp485
sI78928
(dp486
sI78257
(dp487
sI76884
(dp488
sI72789
(dp489
sI70745
(dp490
sI76891
(dp491
sI78941
(dp492
sI78942
(dp493
sI70755
(dp494
sI76900
(dp495
sI78951
(dp496
sI70764
(dp497
sI70765
(dp498
sI70774
(dp499
sI70777
(dp500
sI72828
(dp501
sI76926
(dp502
sI75285
(dp503
sI76929
(dp504
sI70507
(dp505
sI72840
(dp506
sI78989
(dp507
sI76942
(dp508
sI72852
(dp509
sI72855
(dp510
sI70809
(dp511
sI70810
(dp512
sI70815
(dp513
sI70832
(dp514
sI70833
(dp515
sI78709
(dp516
sI79693
(dp517
sI77006
(dp518
sI70866
(dp519
sI77013
(dp520
sI77014
(dp521
sI79064
(dp522
sI77019
(dp523
sI74618
(dp524
sI79073
(dp525
sI77026
(dp526
sI74619
(dp527
sI79892
(dp528
sI70888
(dp529
sI70889
(dp530
sI79086
(dp531
sI70896
(dp532
sI79091
(dp533
sI74622
(dp534
sI74623
(dp535
sI75014
(dp536
sI74626
(dp537
sI70929
(dp538
sI74627
(dp539
sI75310
(dp540
sI72985
(dp541
sI70939
(dp542
sI70942
(dp543
sI74629
(dp544
sI70945
(dp545
sI79139
(dp546
sI75044
(dp547
sI74630
(dp548
sI79142
(dp549
sI78727
(dp550
sI73009
(dp551
sI70965
(dp552
sI75062
(dp553
sI74633
(dp554
sI75071
(dp555
sI79168
(dp556
sI79170
(dp557
sI75076
(dp558
sI79176
(dp559
sI75319
(dp560
sI79074
(dp561
sI71224
(dp562
sI70994
(dp563
sI77139
(dp564
sI73044
(dp565
sI75095
(dp566
sI73050
(dp567
sI78778
(dp568
sI77149
(dp569
sI73054
(dp570
sI75106
(dp571
sI75112
(dp572
sI75113
(dp573
sI79835
(dp574
sI75119
(dp575
sI75120
(dp576
sI75122
(dp577
sI75123
(dp578
sI79223
(dp579
sI71032
(dp580
sI71034
(dp581
sI79232
(dp582
sI75137
(dp583
sI75138
(dp584
sI75139
(dp585
sI71045
(dp586
sI73289
(dp587
sI79242
(dp588
sI79245
(dp589
sI75150
(dp590
sI79248
(dp591
sI75158
(dp592
sI77215
(dp593
sI79264
(dp594
sI75174
(dp595
sI73127
(dp596
sI75176
(dp597
sI73132
(dp598
sI73133
(dp599
sI77230
(dp600
sI77231
(dp601
sI75187
(dp602
sI73141
(dp603
sI77238
(dp604
sI73143
(dp605
sI73145
(dp606
sI73146
(dp607
sI75195
(dp608
sI73149
(dp609
sI75199
(dp610
sI75200
(dp611
sI73154
(dp612
sI73155
(dp613
sI75337
(dp614
sI75220
(dp615
sI76361
(dp616
sI74323
(dp617
sI79348
(dp618
sI73206
(dp619
sI73207
(dp620
sI77304
(dp621
sI74324
(dp622
sI75259
(dp623
sI73212
(dp624
sI79226
(dp625
sI77311
(dp626
sI79360
(dp627
sI73217
(dp628
sI79840
(dp629
sI71175
(dp630
sI77325
(dp631
sI79380
(dp632
sI71189
(dp633
sI71197
(dp634
sI77343
(dp635
sI77386
(dp636
sI71209
(dp637
sI73262
(dp638
sI73263
(dp639
sI73264
(dp640
sI73265
(dp641
sI75315
(dp642
sI72286
(dp643
sI75318
(dp644
sI73271
(dp645
sI73272
(dp646
sI73274
(dp647
sI79910
(dp648
sI73279
(dp649
sI77380
(dp650
sI79429
(dp651
sI71239
(dp652
sI75336
(dp653
sI71241
(dp654
sI75338
(dp655
sI75339
(dp656
sI75341
(dp657
sI75342
(dp658
sI75343
(dp659
sI75344
(dp660
sI75346
(dp661
sI71251
(dp662
sI75348
(dp663
sI75353
(dp664
sI75355
(dp665
sI75357
(dp666
sI73311
(dp667
sI73312
(dp668
sI77409
(dp669
sI77410
(dp670
sI79093
(dp671
sI79434
(dp672
sI73332
(dp673
sI77436
(dp674
sI77439
(dp675
sI73344
(dp676
sI77442
(dp677
sI73347
(dp678
sI75397
(dp679
sI73350
(dp680
sI71303
(dp681
sI79497
(dp682
sI75403
(dp683
sI79502
(dp684
sI79503
(dp685
sI79504
(dp686
sI78787
(dp687
sI71319
(dp688
sI78788
(dp689
sI79514
(dp690
sI78789
(dp691
sI79521
(dp692
sI78790
(dp693
sI79528
(dp694
sI78791
(dp695
sI75436
(dp696
sI77486
(dp697
sI78792
(dp698
sI73395
(dp699
sI75445
(dp700
sI75446
(dp701
sI78793
(dp702
sI71353
(dp703
sI73402
(dp704
sI74698
(dp705
sI71361
(dp706
sI78795
(dp707
sI77509
(dp708
sI75041
(dp709
sI77515
(dp710
sI77187
(dp711
sI79566
(dp712
sI77519
(dp713
sI77529
(dp714
sI77530
(dp715
sI78006
(dp716
sI78800
(dp717
sI73447
(dp718
sI77548
(dp719
sI79234
(dp720
sI73456
(dp721
sI73457
(dp722
sI77561
(dp723
sI77563
(dp724
sI79613
(dp725
sI76757
(dp726
sI77440
(dp727
sI79147
(dp728
sI79235
(dp729
sI79490
(dp730
sI77585
(dp731
sI79923
(dp732
sI77589
(dp733
sI71446
(dp734
sI73495
(dp735
sI73499
(dp736
sI77597
(dp737
sI77598
(dp738
sI77599
(dp739
sI77600
(dp740
sI77601
(dp741
sI77602
(dp742
sI77603
(dp743
sI77604
(dp744
sI79494
(dp745
sI79495
(dp746
sI79660
(dp747
sI71472
(dp748
sI73523
(dp749
sI73527
(dp750
sI73528
(dp751
sI79675
(dp752
sI74720
(dp753
sI71490
(dp754
sI77638
(dp755
sI73545
(dp756
sI79690
(dp757
sI73547
(dp758
sI79692
(dp759
sI76770
(dp760
sI73555
(dp761
sI75605
(dp762
sI75608
(dp763
sI73565
(dp764
sI74725
(dp765
sI73568
(dp766
sI71523
(dp767
sI73572
(dp768
sI73574
(dp769
sI75623
(dp770
sI73576
(dp771
sI75625
(dp772
sI75640
(dp773
sI79739
(dp774
sI71552
(dp775
sI71553
(dp776
sI77699
(dp777
sI73607
(dp778
sI75656
(dp779
sI71563
(dp780
sI71564
(dp781
sI71565
(dp782
sI71566
(dp783
sI71570
(dp784
sI79773
(dp785
sI75678
(dp786
sI78899
(dp787
sI75689
(dp788
sI75690
(dp789
sI79790
(dp790
sI79791
(dp791
sI77744
(dp792
sI75697
(dp793
sI74739
(dp794
sI79796
(dp795
sI78836
(dp796
sI78495
(dp797
sI79809
(dp798
sI79813
(dp799
sI79814
(dp800
sI77767
(dp801
sI77769
(dp802
sI79818
(dp803
sI79819
(dp804
sI79820
(dp805
sI71632
(dp806
sI77779
(dp807
sI73691
(dp808
sI77788
(dp809
sI74332
(dp810
sI79841
(dp811
sI74748
(dp812
sI79850
(dp813
sI79852
(dp814
sI79857
(dp815
sI79858
(dp816
sI77811
(dp817
sI77812
(dp818
sI71670
(dp819
sI79864
(dp820
sI79869
(dp821
sI79871
(dp822
s.