(dp1
I86016
(dp2
sI83969
(dp3
sI88068
(dp4
sI88065
(dp5
sI88074
(dp6
sI88075
(dp7
sI88076
(dp8
sI88078
(dp9
sI88079
(dp10
sI88086
(dp11
sI89269
(dp12
sI89815
(dp13
sI84025
(dp14
sI84030
(dp15
sI89440
(dp16
sI84038
(dp17
sI84044
(dp18
sI81997
(dp19
sI84046
(dp20
sI84048
(dp21
sI88145
(dp22
sI84052
(dp23
sI87737
(dp24
sI86106
(dp25
sI86107
(dp26
sI86109
(dp27
sI86112
(dp28
sI86115
(dp29
sI86117
(dp30
sI86120
(dp31
sI86122
(dp32
sI82034
(dp33
sI86131
(dp34
sI86132
(dp35
sI86135
(dp36
sI86137
(dp37
sI86142
(dp38
sI86144
(dp39
sI84098
(dp40
sI80003
(dp41
sI80004
(dp42
sI84102
(dp43
sI80007
(dp44
sI80009
(dp45
sI82059
(dp46
sI88205
(dp47
sI84110
(dp48
sI84111
(dp49
sI84112
(dp50
sI84113
(dp51
sI86162
(dp52
sI80019
(dp53
sI84116
(dp54
sI84117
(dp55
sI84118
(dp56
sI84119
(dp57
sI84120
(dp58
sI84122
(dp59
sI84123
(dp60
sI84124
(dp61
sI84125
(dp62
sI84126
(dp63
sI84127
(dp64
sI84128
(dp65
sI84129
(dp66
sI84130
(dp67
sI84131
(dp68
sI84132
(dp69
sI84133
(dp70
sI84134
(dp71
sI86183
(dp72
sI84137
(dp73
sI80042
(dp74
sI84140
(dp75
sI84141
(dp76
sI84142
(dp77
sI84143
(dp78
sI84145
(dp79
sI84146
(dp80
sI84150
(dp81
sI88252
(dp82
sI80068
(dp83
sI86214
(dp84
sI82122
(dp85
sI80076
(dp86
sI81613
(dp87
sI80081
(dp88
sI86232
(dp89
sI88293
(dp90
sI84200
(dp91
sI88298
(dp92
sI84204
(dp93
sI86253
(dp94
sI86254
(dp95
sI86255
(dp96
sI89471
(dp97
sI86272
(dp98
sI86274
(dp99
sI82181
(dp100
sI80137
(dp101
sI83671
(dp102
sI86287
(dp103
sI80144
(dp104
sI86293
(dp105
sI86294
(dp106
sI86295
(dp107
sI86297
(dp108
sI86298
(dp109
sI86299
(dp110
sI86300
(dp111
sI88796
(dp112
sI82220
(dp113
sI80173
(dp114
sI86319
(dp115
sI86320
(dp116
sI86322
(dp117
sI86325
(dp118
sI84280
(dp119
sI82236
(dp120
sI82237
(dp121
sI86335
(dp122
sI86336
(dp123
sI86337
(dp124
sI86352
(dp125
sI82267
(dp126
sI86368
(dp127
sI80227
(dp128
sI80229
(dp129
sI82281
(dp130
sI88431
(dp131
sI88435
(dp132
sI82294
(dp133
sI82296
(dp134
sI80249
(dp135
sI80251
(dp136
sI82300
(dp137
sI82301
(dp138
sI80257
(dp139
sI84361
(dp140
sI84363
(dp141
sI86414
(dp142
sI84374
(dp143
sI84375
(dp144
sI84381
(dp145
sI80286
(dp146
sI86434
(dp147
sI86439
(dp148
sI86445
(dp149
sI82378
(dp150
sI82382
(dp151
sI84432
(dp152
sI80339
(dp153
sI82389
(dp154
sI82393
(dp155
sI82396
(dp156
sI87802
(dp157
sI82398
(dp158
sI82399
(dp159
sI80352
(dp160
sI80358
(dp161
sI87804
(dp162
sI88555
(dp163
sI88556
(dp164
sI88557
(dp165
sI84462
(dp166
sI84463
(dp167
sI84464
(dp168
sI88561
(dp169
sI88562
(dp170
sI88563
(dp171
sI84468
(dp172
sI88565
(dp173
sI88566
(dp174
sI88567
(dp175
sI84473
(dp176
sI88570
(dp177
sI84475
(dp178
sI88572
(dp179
sI88262
(dp180
sI80390
(dp181
sI80391
(dp182
sI89558
(dp183
sI86548
(dp184
sI82458
(dp185
sI80416
(dp186
sI82465
(dp187
sI80424
(dp188
sI82473
(dp189
sI82474
(dp190
sI88157
(dp191
sI86577
(dp192
sI80445
(dp193
sI88649
(dp194
sI88650
(dp195
sI88651
(dp196
sI88652
(dp197
sI88653
(dp198
sI88654
(dp199
sI88655
(dp200
sI88656
(dp201
sI88657
(dp202
sI88658
(dp203
sI88660
(dp204
sI88661
(dp205
sI88662
(dp206
sI84567
(dp207
sI88664
(dp208
sI88666
(dp209
sI88947
(dp210
sI88687
(dp211
sI82546
(dp212
sI82547
(dp213
sI80503
(dp214
sI88700
(dp215
sI88702
(dp216
sI86659
(dp217
sI80523
(dp218
sI86673
(dp219
sI82579
(dp220
sI88731
(dp221
sI82592
(dp222
sI88746
(dp223
sI88747
(dp224
sI86130
(dp225
sI88750
(dp226
sI88751
(dp227
sI82613
(dp228
sI82617
(dp229
sI82619
(dp230
sI89205
(dp231
sI82624
(dp232
sI82627
(dp233
sI88064
(dp234
sI87500
(dp235
sI86732
(dp236
sI80592
(dp237
sI86744
(dp238
sI82651
(dp239
sI86748
(dp240
sI88797
(dp241
sI88798
(dp242
sI88799
(dp243
sI88800
(dp244
sI88801
(dp245
sI86755
(dp246
sI84709
(dp247
sI88808
(dp248
sI88809
(dp249
sI88810
(dp250
sI88811
(dp251
sI84718
(dp252
sI82673
(dp253
sI82677
(dp254
sI82681
(dp255
sI86778
(dp256
sI82683
(dp257
sI82685
(dp258
sI82688
(dp259
sI82689
(dp260
sI80642
(dp261
sI82691
(dp262
sI82693
(dp263
sI86793
(dp264
sI88844
(dp265
sI80657
(dp266
sI80345
(dp267
sI88856
(dp268
sI80665
(dp269
sI82720
(dp270
sI88749
(dp271
sI82055
(dp272
sI87809
(dp273
sI82057
(dp274
sI86841
(dp275
sI80705
(dp276
sI82760
(dp277
sI82768
(dp278
sI80723
(dp279
sI86871
(dp280
sI80735
(dp281
sI89805
(dp282
sI88550
(dp283
sI80742
(dp284
sI84115
(dp285
sI84854
(dp286
sI88962
(dp287
sI84867
(dp288
sI86920
(dp289
sI86921
(dp290
sI84874
(dp291
sI86924
(dp292
sI86933
(dp293
sI87193
(dp294
sI84890
(dp295
sI88559
(dp296
sI88560
(dp297
sI84900
(dp298
sI84905
(dp299
sI89004
(dp300
sI86957
(dp301
sI84912
(dp302
sI80818
(dp303
sI84918
(dp304
sI82873
(dp305
sI88223
(dp306
sI80836
(dp307
sI80837
(dp308
sI89035
(dp309
sI86178
(dp310
sI84942
(dp311
sI86179
(dp312
sI86996
(dp313
sI89049
(dp314
sI80860
(dp315
sI89053
(dp316
sI86181
(dp317
sI89056
(dp318
sI80865
(dp319
sI87011
(dp320
sI87012
(dp321
sI87013
(dp322
sI85841
(dp323
sI87017
(dp324
sI80877
(dp325
sI84982
(dp326
sI86185
(dp327
sI89083
(dp328
sI84138
(dp329
sI84991
(dp330
sI89089
(dp331
sI84999
(dp332
sI85000
(dp333
sI85001
(dp334
sI88919
(dp335
sI85004
(dp336
sI87054
(dp337
sI89105
(dp338
sI85015
(dp339
sI85019
(dp340
sI87074
(dp341
sI82980
(dp342
sI86193
(dp343
sI80938
(dp344
sI89134
(dp345
sI89267
(dp346
sI85049
(dp347
sI85050
(dp348
sI83125
(dp349
sI85066
(dp350
sI81079
(dp351
sI85070
(dp352
sI83024
(dp353
sI80991
(dp354
sI85089
(dp355
sI85090
(dp356
sI87805
(dp357
sI80997
(dp358
sI80998
(dp359
sI89276
(dp360
sI89194
(dp361
sI87150
(dp362
sI81012
(dp363
sI81013
(dp364
sI81014
(dp365
sI81015
(dp366
sI87572
(dp367
sI81018
(dp368
sI89220
(dp369
sI81030
(dp370
sI87184
(dp371
sI87188
(dp372
sI87189
(dp373
sI83094
(dp374
sI81047
(dp375
sI86212
(dp376
sI87195
(dp377
sI83104
(dp378
sI87203
(dp379
sI87205
(dp380
sI87206
(dp381
sI83116
(dp382
sI83119
(dp383
sI81072
(dp384
sI81073
(dp385
sI81074
(dp386
sI81075
(dp387
sI87220
(dp388
sI81077
(dp389
sI81078
(dp390
sI83127
(dp391
sI83128
(dp392
sI88558
(dp393
sI81084
(dp394
sI88608
(dp395
sI89291
(dp396
sI83147
(dp397
sI81102
(dp398
sI81105
(dp399
sI89306
(dp400
sI80079
(dp401
sI83164
(dp402
sI83167
(dp403
sI89446
(dp404
sI89328
(dp405
sI89333
(dp406
sI83191
(dp407
sI89337
(dp408
sI81149
(dp409
sI89342
(dp410
sI85248
(dp411
sI83201
(dp412
sI85253
(dp413
sI85258
(dp414
sI85259
(dp415
sI83216
(dp416
sI87322
(dp417
sI83163
(dp418
sI81189
(dp419
sI81190
(dp420
sI89721
(dp421
sI85288
(dp422
sI83244
(dp423
sI85302
(dp424
sI87352
(dp425
sI81221
(dp426
sI81228
(dp427
sI83280
(dp428
sI81234
(dp429
sI85335
(dp430
sI87387
(dp431
sI83296
(dp432
sI89441
(dp433
sI89444
(dp434
sI87398
(dp435
sI83303
(dp436
sI85353
(dp437
sI88564
(dp438
sI83313
(dp439
sI83315
(dp440
sI89466
(dp441
sI81279
(dp442
sI89473
(dp443
sI85383
(dp444
sI86252
(dp445
sI89483
(dp446
sI89485
(dp447
sI89487
(dp448
sI81297
(dp449
sI83351
(dp450
sI89111
(dp451
sI89498
(dp452
sI89499
(dp453
sI89512
(dp454
sI89513
(dp455
sI89514
(dp456
sI81327
(dp457
sI83377
(dp458
sI89529
(dp459
sI85907
(dp460
sI89535
(dp461
sI89538
(dp462
sI89540
(dp463
sI81350
(dp464
sI89547
(dp465
sI81543
(dp466
sI89551
(dp467
sI89556
(dp468
sI89557
(dp469
sI83414
(dp470
sI89559
(dp471
sI85464
(dp472
sI85467
(dp473
sI89564
(dp474
sI81375
(dp475
sI89577
(dp476
sI85486
(dp477
sI81391
(dp478
sI81393
(dp479
sI83444
(dp480
sI80809
(dp481
sI83450
(dp482
sI81406
(dp483
sI86864
(dp484
sI87296
(dp485
sI88663
(dp486
sI87570
(dp487
sI87571
(dp488
sI81428
(dp489
sI87573
(dp490
sI87574
(dp491
sI87575
(dp492
sI83484
(dp493
sI85547
(dp494
sI89651
(dp495
sI85556
(dp496
sI85557
(dp497
sI85560
(dp498
sI87889
(dp499
sI85569
(dp500
sI89355
(dp501
sI85576
(dp502
sI85577
(dp503
sI85584
(dp504
sI87643
(dp505
sI87644
(dp506
sI87648
(dp507
sI87649
(dp508
sI85602
(dp509
sI87652
(dp510
sI87653
(dp511
sI81510
(dp512
sI87655
(dp513
sI87659
(dp514
sI87660
(dp515
sI87661
(dp516
sI85615
(dp517
sI87665
(dp518
sI89717
(dp519
sI87672
(dp520
sI87673
(dp521
sI89724
(dp522
sI87680
(dp523
sI89729
(dp524
sI83589
(dp525
sI85639
(dp526
sI85642
(dp527
sI87698
(dp528
sI87700
(dp529
sI81561
(dp530
sI81562
(dp531
sI86769
(dp532
sI85665
(dp533
sI88347
(dp534
sI87717
(dp535
sI89766
(dp536
sI87721
(dp537
sI85675
(dp538
sI81582
(dp539
sI81583
(dp540
sI87728
(dp541
sI87730
(dp542
sI81587
(dp543
sI81591
(dp544
sI81592
(dp545
sI83641
(dp546
sI81594
(dp547
sI87740
(dp548
sI81597
(dp549
sI87754
(dp550
sI83661
(dp551
sI89806
(dp552
sI87760
(dp553
sI81623
(dp554
sI81628
(dp555
sI83680
(dp556
sI83681
(dp557
sI81640
(dp558
sI85740
(dp559
sI81645
(dp560
sI88236
(dp561
sI87801
(dp562
sI85754
(dp563
sI87803
(dp564
sI85756
(dp565
sI81661
(dp566
sI87806
(dp567
sI87807
(dp568
sI87808
(dp569
sI81665
(dp570
sI87810
(dp571
sI81673
(dp572
sI89875
(dp573
sI89877
(dp574
sI89878
(dp575
sI81687
(dp576
sI89880
(dp577
sI89881
(dp578
sI89882
(dp579
sI89883
(dp580
sI89884
(dp581
sI87837
(dp582
sI85792
(dp583
sI85793
(dp584
sI85794
(dp585
sI83751
(dp586
sI81704
(dp587
sI81707
(dp588
sI85783
(dp589
sI85809
(dp590
sI85814
(dp591
sI89923
(dp592
sI89924
(dp593
sI89925
(dp594
sI89926
(dp595
sI89927
(dp596
sI89935
(dp597
sI83793
(dp598
sI85851
(dp599
sI89948
(dp600
sI81757
(dp601
sI89951
(dp602
sI89953
(dp603
sI89958
(dp604
sI86332
(dp605
sI87015
(dp606
sI87918
(dp607
sI83830
(dp608
sI87927
(dp609
sI83856
(dp610
sI83859
(dp611
sI81812
(dp612
sI81820
(dp613
sI81823
(dp614
sI89879
(dp615
sI81842
(dp616
sI85953
(dp617
sI85962
(dp618
sI87031
(dp619
sI85969
(dp620
sI88031
(dp621
sI88032
(dp622
sI88033
(dp623
sI81893
(dp624
sI85998
(dp625
sI88051
(dp626
sI83959
(dp627
s.