(dp1
I90112
(dp2
sI90113
(dp3
sI90114
(dp4
sI90115
(dp5
sI90116
(dp6
sI90117
(dp7
sI90118
(dp8
sI90119
(dp9
sI90120
(dp10
sI90121
(dp11
sI90122
(dp12
sI96267
(dp13
sI96268
(dp14
sI96258
(dp15
sI96270
(dp16
sI96271
(dp17
sI96272
(dp18
sI96273
(dp19
sI96274
(dp20
sI90131
(dp21
sI96276
(dp22
sI96277
(dp23
sI96278
(dp24
sI96279
(dp25
sI96280
(dp26
sI92185
(dp27
sI96282
(dp28
sI96283
(dp29
sI96284
(dp30
sI96285
(dp31
sI96261
(dp32
sI90144
(dp33
sI96289
(dp34
sI96290
(dp35
sI96225
(dp36
sI96292
(dp37
sI90149
(dp38
sI90150
(dp39
sI90151
(dp40
sI96296
(dp41
sI96297
(dp42
sI96298
(dp43
sI96263
(dp44
sI96300
(dp45
sI96301
(dp46
sI96302
(dp47
sI96303
(dp48
sI96304
(dp49
sI96264
(dp50
sI94258
(dp51
sI96307
(dp52
sI96308
(dp53
sI96309
(dp54
sI96310
(dp55
sI96265
(dp56
sI96312
(dp57
sI96313
(dp58
sI96314
(dp59
sI96315
(dp60
sI96316
(dp61
sI96266
(dp62
sI96318
(dp63
sI96319
(dp64
sI96320
(dp65
sI96321
(dp66
sI94274
(dp67
sI96323
(dp68
sI90180
(dp69
sI90181
(dp70
sI90182
(dp71
sI96327
(dp72
sI96328
(dp73
sI96329
(dp74
sI96330
(dp75
sI96331
(dp76
sI92236
(dp77
sI96333
(dp78
sI96334
(dp79
sI96269
(dp80
sI96336
(dp81
sI96337
(dp82
sI96338
(dp83
sI96339
(dp84
sI96340
(dp85
sI96341
(dp86
sI96342
(dp87
sI96343
(dp88
sI96344
(dp89
sI96345
(dp90
sI96346
(dp91
sI96347
(dp92
sI96348
(dp93
sI96349
(dp94
sI96350
(dp95
sI96351
(dp96
sI96352
(dp97
sI96353
(dp98
sI96354
(dp99
sI96355
(dp100
sI90212
(dp101
sI96357
(dp102
sI96358
(dp103
sI96183
(dp104
sI96360
(dp105
sI96361
(dp106
sI96362
(dp107
sI96363
(dp108
sI96364
(dp109
sI96365
(dp110
sI96366
(dp111
sI96367
(dp112
sI96368
(dp113
sI96369
(dp114
sI96370
(dp115
sI94323
(dp116
sI96372
(dp117
sI96373
(dp118
sI96374
(dp119
sI96375
(dp120
sI96376
(dp121
sI96377
(dp122
sI96378
(dp123
sI92283
(dp124
sI96380
(dp125
sI96381
(dp126
sI96382
(dp127
sI96383
(dp128
sI96384
(dp129
sI96385
(dp130
sI96386
(dp131
sI96387
(dp132
sI92292
(dp133
sI96389
(dp134
sI96390
(dp135
sI96391
(dp136
sI96392
(dp137
sI96393
(dp138
sI96394
(dp139
sI96395
(dp140
sI96396
(dp141
sI96397
(dp142
sI96398
(dp143
sI96399
(dp144
sI96400
(dp145
sI96401
(dp146
sI96402
(dp147
sI92137
(dp148
sI96404
(dp149
sI96405
(dp150
sI96406
(dp151
sI92311
(dp152
sI96408
(dp153
sI96409
(dp154
sI96410
(dp155
sI96411
(dp156
sI96412
(dp157
sI96413
(dp158
sI96414
(dp159
sI96415
(dp160
sI96416
(dp161
sI96417
(dp162
sI96418
(dp163
sI96419
(dp164
sI96420
(dp165
sI96421
(dp166
sI96422
(dp167
sI96423
(dp168
sI96424
(dp169
sI96425
(dp170
sI96426
(dp171
sI96427
(dp172
sI96428
(dp173
sI96429
(dp174
sI96430
(dp175
sI96431
(dp176
sI92336
(dp177
sI96433
(dp178
sI96434
(dp179
sI96435
(dp180
sI96436
(dp181
sI96437
(dp182
sI96438
(dp183
sI92343
(dp184
sI92344
(dp185
sI96230
(dp186
sI96442
(dp187
sI96287
(dp188
sI96444
(dp189
sI96445
(dp190
sI96446
(dp191
sI92351
(dp192
sI96448
(dp193
sI96288
(dp194
sI96450
(dp195
sI96451
(dp196
sI96452
(dp197
sI96453
(dp198
sI96454
(dp199
sI96455
(dp200
sI96456
(dp201
sI96457
(dp202
sI96458
(dp203
sI96459
(dp204
sI96460
(dp205
sI96461
(dp206
sI96462
(dp207
sI96463
(dp208
sI96464
(dp209
sI96299
(dp210
sI96466
(dp211
sI94419
(dp212
sI96468
(dp213
sI96469
(dp214
sI96470
(dp215
sI96231
(dp216
sI96472
(dp217
sI96473
(dp218
sI96474
(dp219
sI96475
(dp220
sI96476
(dp221
sI96477
(dp222
sI96478
(dp223
sI96293
(dp224
sI96480
(dp225
sI96481
(dp226
sI96482
(dp227
sI96483
(dp228
sI90340
(dp229
sI96294
(dp230
sI96486
(dp231
sI96487
(dp232
sI92392
(dp233
sI96489
(dp234
sI96490
(dp235
sI96295
(dp236
sI92396
(dp237
sI96493
(dp238
sI96494
(dp239
sI96495
(dp240
sI96496
(dp241
sI96497
(dp242
sI96498
(dp243
sI90355
(dp244
sI96500
(dp245
sI96232
(dp246
sI96502
(dp247
sI96503
(dp248
sI96504
(dp249
sI96505
(dp250
sI96506
(dp251
sI96507
(dp252
sI96508
(dp253
sI96509
(dp254
sI96510
(dp255
sI96511
(dp256
sI96512
(dp257
sI96513
(dp258
sI96514
(dp259
sI94467
(dp260
sI96516
(dp261
sI96517
(dp262
sI96518
(dp263
sI94471
(dp264
sI96520
(dp265
sI96521
(dp266
sI96522
(dp267
sI96523
(dp268
sI96524
(dp269
sI96525
(dp270
sI96526
(dp271
sI96527
(dp272
sI96528
(dp273
sI96529
(dp274
sI96530
(dp275
sI90387
(dp276
sI96532
(dp277
sI96533
(dp278
sI90390
(dp279
sI96535
(dp280
sI96537
(dp281
sI96538
(dp282
sI96539
(dp283
sI96540
(dp284
sI96541
(dp285
sI96542
(dp286
sI96543
(dp287
sI96544
(dp288
sI96545
(dp289
sI96546
(dp290
sI96547
(dp291
sI96548
(dp292
sI96549
(dp293
sI96550
(dp294
sI96305
(dp295
sI90410
(dp296
sI98603
(dp297
sI96306
(dp298
sI96234
(dp299
sI96570
(dp300
sI94525
(dp301
sI98624
(dp302
sI98625
(dp303
sI98626
(dp304
sI98630
(dp305
sI90439
(dp306
sI98633
(dp307
sI96311
(dp308
sI98638
(dp309
sI94544
(dp310
sI98643
(dp311
sI90458
(dp312
sI90459
(dp313
sI94556
(dp314
sI98145
(dp315
sI90465
(dp316
sI94563
(dp317
sI94567
(dp318
sI99373
(dp319
sI96317
(dp320
sI98674
(dp321
sI97873
(dp322
sI90489
(dp323
sI98487
(dp324
sI99169
(dp325
sI99825
(dp326
sI97617
(dp327
sI90509
(dp328
sI90510
(dp329
sI96656
(dp330
sI97658
(dp331
sI90516
(dp332
sI90518
(dp333
sI98713
(dp334
sI94276
(dp335
sI98147
(dp336
sI98716
(dp337
sI96325
(dp338
sI92576
(dp339
sI92578
(dp340
sI98715
(dp341
sI96676
(dp342
sI92581
(dp343
sI92585
(dp344
sI94637
(dp345
sI96687
(dp346
sI90546
(dp347
sI98272
(dp348
sI99595
(dp349
sI98719
(dp350
sI98750
(dp351
sI99785
(dp352
sI94662
(dp353
sI96239
(dp354
sI96332
(dp355
sI92621
(dp356
sI92622
(dp357
sI98477
(dp358
sI99172
(dp359
sI96335
(dp360
sI96240
(dp361
sI97877
(dp362
sI97021
(dp363
sI97127
(dp364
sI98183
(dp365
sI94710
(dp366
sI97656
(dp367
sI90622
(dp368
sI98815
(dp369
sI98816
(dp370
sI92674
(dp371
sI96241
(dp372
sI90628
(dp373
sI92697
(dp374
sI97618
(dp375
sI97907
(dp376
sI92710
(dp377
sI97879
(dp378
sI97031
(dp379
sI97811
(dp380
sI94777
(dp381
sI97891
(dp382
sI93280
(dp383
sI90696
(dp384
sI92759
(dp385
sI92761
(dp386
sI97182
(dp387
sI98631
(dp388
sI94822
(dp389
sI97041
(dp390
sI98563
(dp391
sI96359
(dp392
sI98928
(dp393
sI96881
(dp394
sI92786
(dp395
sI96884
(dp396
sI96888
(dp397
sI96890
(dp398
sI96891
(dp399
sI92798
(dp400
sI98950
(dp401
sI96903
(dp402
sI96904
(dp403
sI90770
(dp404
sI97049
(dp405
sI96246
(dp406
sI97050
(dp407
sI96371
(dp408
sI90807
(dp409
sI99000
(dp410
sI97055
(dp411
sI94908
(dp412
sI97660
(dp413
sI96248
(dp414
sI97885
(dp415
sI97601
(dp416
sI97933
(dp417
sI96379
(dp418
sI96996
(dp419
sI94955
(dp420
sI90861
(dp421
sI90862
(dp422
sI96249
(dp423
sI97014
(dp424
sI97017
(dp425
sI97018
(dp426
sI97019
(dp427
sI97020
(dp428
sI90877
(dp429
sI97022
(dp430
sI97023
(dp431
sI97024
(dp432
sI97025
(dp433
sI97026
(dp434
sI97027
(dp435
sI97028
(dp436
sI97030
(dp437
sI94983
(dp438
sI97032
(dp439
sI97033
(dp440
sI97034
(dp441
sI97035
(dp442
sI97036
(dp443
sI97037
(dp444
sI97038
(dp445
sI97039
(dp446
sI97040
(dp447
sI96250
(dp448
sI97042
(dp449
sI97043
(dp450
sI97044
(dp451
sI97045
(dp452
sI97046
(dp453
sI97047
(dp454
sI97048
(dp455
sI94340
(dp456
sI90906
(dp457
sI97051
(dp458
sI97052
(dp459
sI97053
(dp460
sI97054
(dp461
sI90911
(dp462
sI97056
(dp463
sI97057
(dp464
sI97058
(dp465
sI97059
(dp466
sI97060
(dp467
sI97061
(dp468
sI97062
(dp469
sI90919
(dp470
sI97064
(dp471
sI97065
(dp472
sI97066
(dp473
sI97067
(dp474
sI97068
(dp475
sI97069
(dp476
sI97070
(dp477
sI96251
(dp478
sI95024
(dp479
sI95025
(dp480
sI92978
(dp481
sI96051
(dp482
sI97076
(dp483
sI90933
(dp484
sI97078
(dp485
sI97079
(dp486
sI97080
(dp487
sI96052
(dp488
sI97082
(dp489
sI97083
(dp490
sI97084
(dp491
sI97085
(dp492
sI97086
(dp493
sI92981
(dp494
sI97088
(dp495
sI97089
(dp496
sI96388
(dp497
sI97091
(dp498
sI97092
(dp499
sI96054
(dp500
sI95046
(dp501
sI97095
(dp502
sI97096
(dp503
sI97097
(dp504
sI97098
(dp505
sI97099
(dp506
sI97100
(dp507
sI97101
(dp508
sI95054
(dp509
sI97103
(dp510
sI93008
(dp511
sI97105
(dp512
sI97106
(dp513
sI97107
(dp514
sI97108
(dp515
sI97109
(dp516
sI97110
(dp517
sI96057
(dp518
sI97112
(dp519
sI92979
(dp520
sI97114
(dp521
sI97115
(dp522
sI97116
(dp523
sI96058
(dp524
sI97118
(dp525
sI97119
(dp526
sI97120
(dp527
sI97071
(dp528
sI97122
(dp529
sI96059
(dp530
sI97124
(dp531
sI97125
(dp532
sI97126
(dp533
sI93031
(dp534
sI97128
(dp535
sI96060
(dp536
sI97130
(dp537
sI97131
(dp538
sI97132
(dp539
sI97134
(dp540
sI97135
(dp541
sI97136
(dp542
sI96185
(dp543
sI97138
(dp544
sI96403
(dp545
sI90996
(dp546
sI97141
(dp547
sI97142
(dp548
sI97143
(dp549
sI97144
(dp550
sI97145
(dp551
sI97146
(dp552
sI92991
(dp553
sI97148
(dp554
sI97149
(dp555
sI97150
(dp556
sI97072
(dp557
sI97152
(dp558
sI97153
(dp559
sI97154
(dp560
sI97155
(dp561
sI96322
(dp562
sI97157
(dp563
sI95110
(dp564
sI97159
(dp565
sI97160
(dp566
sI96254
(dp567
sI97162
(dp568
sI96407
(dp569
sI97164
(dp570
sI97090
(dp571
sI97166
(dp572
sI97167
(dp573
sI97168
(dp574
sI97169
(dp575
sI97170
(dp576
sI97171
(dp577
sI97172
(dp578
sI97173
(dp579
sI97174
(dp580
sI97175
(dp581
sI97176
(dp582
sI97177
(dp583
sI97178
(dp584
sI97179
(dp585
sI97180
(dp586
sI97073
(dp587
sI93086
(dp588
sI97093
(dp589
sI97184
(dp590
sI97185
(dp591
sI97186
(dp592
sI97187
(dp593
sI97188
(dp594
sI97094
(dp595
sI97074
(dp596
sI96255
(dp597
sI97192
(dp598
sI97193
(dp599
sI97194
(dp600
sI97195
(dp601
sI97196
(dp602
sI97197
(dp603
sI97198
(dp604
sI93103
(dp605
sI97200
(dp606
sI97201
(dp607
sI97202
(dp608
sI97203
(dp609
sI97204
(dp610
sI95157
(dp611
sI97206
(dp612
sI96492
(dp613
sI97208
(dp614
sI97209
(dp615
sI97210
(dp616
sI93115
(dp617
sI97212
(dp618
sI97213
(dp619
sI97215
(dp620
sI96324
(dp621
sI97217
(dp622
sI96216
(dp623
sI97219
(dp624
sI97220
(dp625
sI96256
(dp626
sI98124
(dp627
sI97211
(dp628
sI94029
(dp629
sI97784
(dp630
sI97102
(dp631
sI97075
(dp632
sI97104
(dp633
sI96257
(dp634
sI99476
(dp635
sI99701
(dp636
sI98473
(dp637
sI96326
(dp638
sI95231
(dp639
sI97792
(dp640
sI99332
(dp641
sI99333
(dp642
sI97111
(dp643
sI98818
(dp644
sI97846
(dp645
sI95250
(dp646
sI97077
(dp647
sI97759
(dp648
sI97113
(dp649
sI97661
(dp650
sI96259
(dp651
sI96432
(dp652
sI98140
(dp653
sI98482
(dp654
sI97117
(dp655
sI99378
(dp656
sI98142
(dp657
sI98143
(dp658
sI96260
(dp659
sI98144
(dp660
sI97875
(dp661
sI97121
(dp662
sI97804
(dp663
sI96439
(dp664
sI98146
(dp665
sI96440
(dp666
sI97123
(dp667
sI96441
(dp668
sI98148
(dp669
sI99418
(dp670
sI95323
(dp671
sI95324
(dp672
sI95325
(dp673
sI95326
(dp674
sI95327
(dp675
sI95328
(dp676
sI99695
(dp677
sI96443
(dp678
sI95332
(dp679
sI95334
(dp680
sI97809
(dp681
sI95338
(dp682
sI95339
(dp683
sI99440
(dp684
sI95347
(dp685
sI99808
(dp686
sI97129
(dp687
sI96262
(dp688
sI91261
(dp689
sI91262
(dp690
sI98163
(dp691
sI91264
(dp692
sI91267
(dp693
sI91269
(dp694
sI96449
(dp695
sI97081
(dp696
sI95379
(dp697
sI97063
(dp698
sI97595
(dp699
sI93342
(dp700
sI97819
(dp701
sI97137
(dp702
sI97764
(dp703
sI93361
(dp704
sI97139
(dp705
sI95412
(dp706
sI97140
(dp707
sI97151
(dp708
sI97765
(dp709
sI98580
(dp710
sI98125
(dp711
sI99548
(dp712
sI98141
(dp713
sI99553
(dp714
sI97147
(dp715
sI96465
(dp716
sI97831
(dp717
sI91374
(dp718
sI96467
(dp719
sI95479
(dp720
sI91387
(dp721
sI97834
(dp722
sI97835
(dp723
sI97923
(dp724
sI99592
(dp725
sI99593
(dp726
sI91402
(dp727
sI96471
(dp728
sI91406
(dp729
sI97837
(dp730
sI99607
(dp731
sI97156
(dp732
sI91420
(dp733
sI97855
(dp734
sI91424
(dp735
sI97158
(dp736
sI97207
(dp737
sI97843
(dp738
sI97161
(dp739
sI98246
(dp740
sI97593
(dp741
sI97594
(dp742
sI96479
(dp743
sI97596
(dp744
sI96138
(dp745
sI97598
(dp746
sI97599
(dp747
sI97600
(dp748
sI97087
(dp749
sI97163
(dp750
sI97604
(dp751
sI97605
(dp752
sI97606
(dp753
sI91464
(dp754
sI97613
(dp755
sI97614
(dp756
sI91471
(dp757
sI95568
(dp758
sI91473
(dp759
sI93522
(dp760
sI97619
(dp761
sI97620
(dp762
sI97621
(dp763
sI97622
(dp764
sI97623
(dp765
sI97624
(dp766
sI96484
(dp767
sI97626
(dp768
sI97627
(dp769
sI97628
(dp770
sI96485
(dp771
sI97632
(dp772
sI97633
(dp773
sI97634
(dp774
sI97635
(dp775
sI91492
(dp776
sI97637
(dp777
sI97638
(dp778
sI97639
(dp779
sI97640
(dp780
sI97641
(dp781
sI97642
(dp782
sI93547
(dp783
sI97644
(dp784
sI95597
(dp785
sI97646
(dp786
sI97647
(dp787
sI97648
(dp788
sI96488
(dp789
sI97650
(dp790
sI97651
(dp791
sI97652
(dp792
sI97653
(dp793
sI97654
(dp794
sI97655
(dp795
sI95608
(dp796
sI97657
(dp797
sI97649
(dp798
sI97659
(dp799
sI95612
(dp800
sI91517
(dp801
sI99710
(dp802
sI97771
(dp803
sI97616
(dp804
sI95618
(dp805
sI96491
(dp806
sI95620
(dp807
sI98198
(dp808
sI99720
(dp809
sI95625
(dp810
sI95627
(dp811
sI99724
(dp812
sI97858
(dp813
sI91534
(dp814
sI96152
(dp815
sI97688
(dp816
sI97870
(dp817
sI91553
(dp818
sI95656
(dp819
sI97636
(dp820
sI97708
(dp821
sI99138
(dp822
sI97181
(dp823
sI96499
(dp824
sI93621
(dp825
sI99594
(dp826
sI97183
(dp827
sI96233
(dp828
sI96501
(dp829
sI97729
(dp830
sI97867
(dp831
sI98209
(dp832
sI97597
(dp833
sI97741
(dp834
sI97742
(dp835
sI97743
(dp836
sI97744
(dp837
sI97745
(dp838
sI97746
(dp839
sI97747
(dp840
sI97748
(dp841
sI97749
(dp842
sI97750
(dp843
sI97751
(dp844
sI97752
(dp845
sI97753
(dp846
sI97754
(dp847
sI97755
(dp848
sI97756
(dp849
sI97757
(dp850
sI97189
(dp851
sI97760
(dp852
sI97761
(dp853
sI97762
(dp854
sI97763
(dp855
sI96356
(dp856
sI97190
(dp857
sI97766
(dp858
sI97767
(dp859
sI97768
(dp860
sI97769
(dp861
sI97770
(dp862
sI97191
(dp863
sI97772
(dp864
sI97773
(dp865
sI97774
(dp866
sI97775
(dp867
sI97776
(dp868
sI96247
(dp869
sI97778
(dp870
sI97779
(dp871
sI97780
(dp872
sI97781
(dp873
sI97782
(dp874
sI93688
(dp875
sI97785
(dp876
sI97786
(dp877
sI97787
(dp878
sI97788
(dp879
sI97789
(dp880
sI97790
(dp881
sI97791
(dp882
sI96275
(dp883
sI97793
(dp884
sI97794
(dp885
sI97795
(dp886
sI97797
(dp887
sI97798
(dp888
sI97799
(dp889
sI97800
(dp890
sI97801
(dp891
sI97802
(dp892
sI97803
(dp893
sI93708
(dp894
sI97805
(dp895
sI97806
(dp896
sI97807
(dp897
sI97808
(dp898
sI93713
(dp899
sI97810
(dp900
sI96515
(dp901
sI97812
(dp902
sI97813
(dp903
sI97814
(dp904
sI97815
(dp905
sI97816
(dp906
sI97817
(dp907
sI97818
(dp908
sI97199
(dp909
sI97820
(dp910
sI97821
(dp911
sI97822
(dp912
sI97823
(dp913
sI97824
(dp914
sI97825
(dp915
sI97826
(dp916
sI97827
(dp917
sI97828
(dp918
sI97829
(dp919
sI97830
(dp920
sI96177
(dp921
sI97832
(dp922
sI97833
(dp923
sI91690
(dp924
sI96519
(dp925
sI97836
(dp926
sI93741
(dp927
sI97838
(dp928
sI97839
(dp929
sI97840
(dp930
sI97841
(dp931
sI97842
(dp932
sI97777
(dp933
sI97844
(dp934
sI97845
(dp935
sI97625
(dp936
sI97847
(dp937
sI97848
(dp938
sI97849
(dp939
sI97851
(dp940
sI97852
(dp941
sI97853
(dp942
sI97854
(dp943
sI97205
(dp944
sI97856
(dp945
sI97857
(dp946
sI96209
(dp947
sI97859
(dp948
sI97860
(dp949
sI97861
(dp950
sI97862
(dp951
sI97863
(dp952
sI97864
(dp953
sI97865
(dp954
sI97866
(dp955
sI93771
(dp956
sI97868
(dp957
sI97869
(dp958
sI93774
(dp959
sI97871
(dp960
sI97872
(dp961
sI96184
(dp962
sI97874
(dp963
sI97216
(dp964
sI97876
(dp965
sI93781
(dp966
sI97878
(dp967
sI93783
(dp968
sI97880
(dp969
sI97881
(dp970
sI97882
(dp971
sI97883
(dp972
sI97884
(dp973
sI96186
(dp974
sI97886
(dp975
sI97887
(dp976
sI97888
(dp977
sI97889
(dp978
sI97890
(dp979
sI96187
(dp980
sI97892
(dp981
sI97893
(dp982
sI97894
(dp983
sI97895
(dp984
sI97165
(dp985
sI96188
(dp986
sI97898
(dp987
sI95851
(dp988
sI97900
(dp989
sI97901
(dp990
sI97902
(dp991
sI96189
(dp992
sI97904
(dp993
sI97896
(dp994
sI97906
(dp995
sI96531
(dp996
sI97908
(dp997
sI97909
(dp998
sI97910
(dp999
sI97897
(dp1000
sI97912
(dp1001
sI97913
(dp1002
sI97914
(dp1003
sI97643
(dp1004
sI97916
(dp1005
sI97917
(dp1006
sI97918
(dp1007
sI96192
(dp1008
sI97922
(dp1009
sI97899
(dp1010
sI97924
(dp1011
sI96534
(dp1012
sI95878
(dp1013
sI97927
(dp1014
sI97928
(dp1015
sI97929
(dp1016
sI97930
(dp1017
sI97931
(dp1018
sI97932
(dp1019
sI97218
(dp1020
sI97934
(dp1021
sI99985
(dp1022
sI99988
(dp1023
sI97942
(dp1024
sI97903
(dp1025
sI96197
(dp1026
sI97952
(dp1027
sI97957
(dp1028
sI97905
(dp1029
sI91819
(dp1030
sI95916
(dp1031
sI91822
(dp1032
sI93872
(dp1033
sI91825
(dp1034
sI93874
(dp1035
sI93875
(dp1036
sI96281
(dp1037
sI97645
(dp1038
sI91833
(dp1039
sI91834
(dp1040
sI99691
(dp1041
sI97981
(dp1042
sI91838
(dp1043
sI91843
(dp1044
sI91844
(dp1045
sI93893
(dp1046
sI97926
(dp1047
sI97911
(dp1048
sI95951
(dp1049
sI93904
(dp1050
sI91860
(dp1051
sI96291
(dp1052
sI99140
(dp1053
sI97915
(dp1054
sI95975
(dp1055
sI99765
(dp1056
sI93930
(dp1057
sI96551
(dp1058
sI97925
(dp1059
sI96003
(dp1060
sI96004
(dp1061
sI96005
(dp1062
sI96006
(dp1063
sI96007
(dp1064
sI96008
(dp1065
sI96009
(dp1066
sI96010
(dp1067
sI96011
(dp1068
sI96012
(dp1069
sI96013
(dp1070
sI96014
(dp1071
sI96015
(dp1072
sI96016
(dp1073
sI96017
(dp1074
sI96018
(dp1075
sI96019
(dp1076
sI96020
(dp1077
sI96021
(dp1078
sI96023
(dp1079
sI96024
(dp1080
sI96025
(dp1081
sI96026
(dp1082
sI96027
(dp1083
sI96028
(dp1084
sI96029
(dp1085
sI96030
(dp1086
sI96031
(dp1087
sI96032
(dp1088
sI96033
(dp1089
sI96035
(dp1090
sI96036
(dp1091
sI96037
(dp1092
sI96038
(dp1093
sI96039
(dp1094
sI96040
(dp1095
sI96041
(dp1096
sI96043
(dp1097
sI96044
(dp1098
sI96045
(dp1099
sI96046
(dp1100
sI96047
(dp1101
sI96048
(dp1102
sI96049
(dp1103
sI96050
(dp1104
sI94003
(dp1105
sI94004
(dp1106
sI96053
(dp1107
sI94006
(dp1108
sI96055
(dp1109
sI96056
(dp1110
sI94009
(dp1111
sI94010
(dp1112
sI94011
(dp1113
sI94012
(dp1114
sI96061
(dp1115
sI96062
(dp1116
sI96063
(dp1117
sI96064
(dp1118
sI96065
(dp1119
sI96066
(dp1120
sI96067
(dp1121
sI96068
(dp1122
sI96069
(dp1123
sI96070
(dp1124
sI96071
(dp1125
sI96072
(dp1126
sI96073
(dp1127
sI96074
(dp1128
sI96075
(dp1129
sI96076
(dp1130
sI96077
(dp1131
sI96078
(dp1132
sI96079
(dp1133
sI96080
(dp1134
sI96081
(dp1135
sI96082
(dp1136
sI96083
(dp1137
sI96084
(dp1138
sI96085
(dp1139
sI96086
(dp1140
sI96087
(dp1141
sI96088
(dp1142
sI96089
(dp1143
sI96090
(dp1144
sI96091
(dp1145
sI96092
(dp1146
sI96093
(dp1147
sI96094
(dp1148
sI96095
(dp1149
sI96096
(dp1150
sI96097
(dp1151
sI96098
(dp1152
sI96099
(dp1153
sI96100
(dp1154
sI96101
(dp1155
sI96102
(dp1156
sI96103
(dp1157
sI96104
(dp1158
sI96105
(dp1159
sI96106
(dp1160
sI96107
(dp1161
sI96108
(dp1162
sI96109
(dp1163
sI96110
(dp1164
sI96111
(dp1165
sI96112
(dp1166
sI96113
(dp1167
sI96114
(dp1168
sI96115
(dp1169
sI96116
(dp1170
sI96117
(dp1171
sI96118
(dp1172
sI96119
(dp1173
sI96120
(dp1174
sI96121
(dp1175
sI96122
(dp1176
sI96123
(dp1177
sI96124
(dp1178
sI96125
(dp1179
sI96126
(dp1180
sI96127
(dp1181
sI96128
(dp1182
sI96129
(dp1183
sI96130
(dp1184
sI96131
(dp1185
sI96132
(dp1186
sI96133
(dp1187
sI96134
(dp1188
sI96135
(dp1189
sI96136
(dp1190
sI96137
(dp1191
sI94090
(dp1192
sI96139
(dp1193
sI96140
(dp1194
sI96141
(dp1195
sI96142
(dp1196
sI96143
(dp1197
sI96144
(dp1198
sI96145
(dp1199
sI96146
(dp1200
sI96147
(dp1201
sI96148
(dp1202
sI96149
(dp1203
sI96150
(dp1204
sI96151
(dp1205
sI94104
(dp1206
sI96153
(dp1207
sI96154
(dp1208
sI96155
(dp1209
sI96156
(dp1210
sI96157
(dp1211
sI96158
(dp1212
sI96159
(dp1213
sI96160
(dp1214
sI96161
(dp1215
sI96162
(dp1216
sI96163
(dp1217
sI96164
(dp1218
sI96165
(dp1219
sI96166
(dp1220
sI96167
(dp1221
sI96168
(dp1222
sI96169
(dp1223
sI96170
(dp1224
sI96171
(dp1225
sI96172
(dp1226
sI96173
(dp1227
sI96174
(dp1228
sI96176
(dp1229
sI92081
(dp1230
sI96178
(dp1231
sI96179
(dp1232
sI96180
(dp1233
sI96181
(dp1234
sI96182
(dp1235
sI94135
(dp1236
sI90040
(dp1237
sI90041
(dp1238
sI90042
(dp1239
sI90043
(dp1240
sI90044
(dp1241
sI92093
(dp1242
sI96190
(dp1243
sI96191
(dp1244
sI92096
(dp1245
sI96193
(dp1246
sI96194
(dp1247
sI96195
(dp1248
sI96196
(dp1249
sI90053
(dp1250
sI96198
(dp1251
sI96199
(dp1252
sI96200
(dp1253
sI96201
(dp1254
sI96202
(dp1255
sI96203
(dp1256
sI96204
(dp1257
sI96205
(dp1258
sI96206
(dp1259
sI96207
(dp1260
sI96208
(dp1261
sI90104
(dp1262
sI96210
(dp1263
sI96211
(dp1264
sI96212
(dp1265
sI96213
(dp1266
sI96214
(dp1267
sI96215
(dp1268
sI90072
(dp1269
sI96217
(dp1270
sI96218
(dp1271
sI97615
(dp1272
sI96220
(dp1273
sI96221
(dp1274
sI96222
(dp1275
sI96223
(dp1276
sI96224
(dp1277
sI91472
(dp1278
sI96226
(dp1279
sI96227
(dp1280
sI96228
(dp1281
sI96229
(dp1282
sI92134
(dp1283
sI92135
(dp1284
sI92136
(dp1285
sI94185
(dp1286
sI90090
(dp1287
sI96235
(dp1288
sI96236
(dp1289
sI96237
(dp1290
sI96238
(dp1291
sI90095
(dp1292
sI94192
(dp1293
sI90097
(dp1294
sI96242
(dp1295
sI96243
(dp1296
sI96244
(dp1297
sI96245
(dp1298
sI90102
(dp1299
sI90103
(dp1300
sI94200
(dp1301
sI90105
(dp1302
sI90106
(dp1303
sI90107
(dp1304
sI96252
(dp1305
sI96253
(dp1306
sI90110
(dp1307
sI90111
(dp1308
s.